	.file	"euler.cpp"
	.text
	.section .rdata,"dr"
_ZStL19piecewise_construct:
	.space 1
	.section	.text$_ZnwmPv,"x"
	.linkonce discard
	.globl	_ZnwmPv
	.def	_ZnwmPv;	.scl	2;	.type	32;	.endef
	.seh_proc	_ZnwmPv
_ZnwmPv:
.LFB355:
	pushq	%rbp
	.seh_pushreg	%rbp
	movq	%rsp, %rbp
	.seh_setframe	%rbp, 0
	.seh_endprologue
	movq	%rcx, 16(%rbp)
	movq	%rdx, 24(%rbp)
	movq	24(%rbp), %rax
	popq	%rbp
	ret
	.seh_endproc
	.section	.text$_ZdlPvS_,"x"
	.linkonce discard
	.globl	_ZdlPvS_
	.def	_ZdlPvS_;	.scl	2;	.type	32;	.endef
	.seh_proc	_ZdlPvS_
_ZdlPvS_:
.LFB357:
	pushq	%rbp
	.seh_pushreg	%rbp
	movq	%rsp, %rbp
	.seh_setframe	%rbp, 0
	.seh_endprologue
	movq	%rcx, 16(%rbp)
	movq	%rdx, 24(%rbp)
	nop
	popq	%rbp
	ret
	.seh_endproc
.lcomm _ZStL8__ioinit,1,1
	.section .rdata,"dr"
.LC0:
	.ascii " \0"
	.text
	.align 2
	.globl	_ZN5eulerC2ESs
	.def	_ZN5eulerC2ESs;	.scl	2;	.type	32;	.endef
	.seh_proc	_ZN5eulerC2ESs
_ZN5eulerC2ESs:
.LFB2123:
	pushq	%rbp
	.seh_pushreg	%rbp
	pushq	%rbx
	.seh_pushreg	%rbx
	subq	$600, %rsp
	.seh_stackalloc	600
	leaq	128(%rsp), %rbp
	.seh_setframe	%rbp, 128
	.seh_endprologue
	movq	%rcx, 496(%rbp)
	movq	%rdx, 504(%rbp)
	movq	496(%rbp), %rax
	movq	%rax, %rcx
	call	_ZNSt6vectorIS_IiSaIiEESaIS1_EEC1Ev
	movq	496(%rbp), %rax
	addq	$24, %rax
	movq	%rax, %rcx
	call	_ZNSt6vectorIiSaIiEEC1Ev
	movq	496(%rbp), %rax
	movl	$0, 48(%rax)
	movq	496(%rbp), %rax
	movl	$0, 52(%rax)
	movq	496(%rbp), %rax
	movl	$0, 56(%rax)
	movq	496(%rbp), %rax
	movl	$0, 60(%rax)
	leaq	-96(%rbp), %rax
	movq	%rax, %rcx
.LEHB0:
	call	_ZNSt14basic_ifstreamIcSt11char_traitsIcEEC1Ev
.LEHE0:
	movq	504(%rbp), %rdx
	leaq	-96(%rbp), %rax
	movl	$8, %r8d
	movq	%rax, %rcx
.LEHB1:
	call	_ZNSt14basic_ifstreamIcSt11char_traitsIcEE4openERKSsSt13_Ios_Openmode
	movq	496(%rbp), %rax
	leaq	52(%rax), %rdx
	leaq	-96(%rbp), %rax
	movq	%rax, %rcx
	call	_ZNSirsERi
	movq	496(%rbp), %rax
	leaq	48(%rax), %rdx
	leaq	-96(%rbp), %rax
	movq	%rax, %rcx
	call	_ZNSirsERi
.LEHE1:
	movq	496(%rbp), %rbx
	leaq	435(%rbp), %rax
	movq	%rax, %rcx
	call	_ZNSaIiEC1Ev
	movl	$0, 436(%rbp)
	movq	496(%rbp), %rax
	movl	52(%rax), %eax
	movslq	%eax, %rdx
	leaq	435(%rbp), %r8
	leaq	436(%rbp), %rcx
	leaq	400(%rbp), %rax
	movq	%r8, %r9
	movq	%rcx, %r8
	movq	%rax, %rcx
.LEHB2:
	call	_ZNSt6vectorIiSaIiEEC1EmRKiRKS0_
.LEHE2:
	movq	496(%rbp), %rax
	movl	52(%rax), %eax
	cltq
	leaq	400(%rbp), %rdx
	movq	%rdx, %r8
	movq	%rax, %rdx
	movq	%rbx, %rcx
.LEHB3:
	call	_ZNSt6vectorIS_IiSaIiEESaIS1_EE6resizeEmRKS1_
.LEHE3:
	leaq	400(%rbp), %rax
	movq	%rax, %rcx
	call	_ZNSt6vectorIiSaIiEED1Ev
	leaq	435(%rbp), %rax
	movq	%rax, %rcx
	call	_ZNSaIiED1Ev
	movq	496(%rbp), %rax
	movl	48(%rax), %eax
	movl	%eax, 460(%rbp)
.L6:
	cmpl	$0, 460(%rbp)
	jle	.L5
	movl	$0, 396(%rbp)
	leaq	396(%rbp), %rdx
	leaq	-96(%rbp), %rax
	movq	%rax, %rcx
.LEHB4:
	call	_ZNSirsERi
	movl	$0, 392(%rbp)
	leaq	392(%rbp), %rdx
	leaq	-96(%rbp), %rax
	movq	%rax, %rcx
	call	_ZNSirsERi
	movl	392(%rbp), %eax
	subl	$1, %eax
	movslq	%eax, %rbx
	movl	396(%rbp), %eax
	subl	$1, %eax
	movslq	%eax, %rdx
	movq	496(%rbp), %rax
	movq	%rax, %rcx
	call	_ZNSt6vectorIS_IiSaIiEESaIS1_EEixEm
	movq	%rbx, %rdx
	movq	%rax, %rcx
	call	_ZNSt6vectorIiSaIiEEixEm
	movl	$1, (%rax)
	movl	396(%rbp), %eax
	subl	$1, %eax
	movslq	%eax, %rbx
	movl	392(%rbp), %eax
	subl	$1, %eax
	movslq	%eax, %rdx
	movq	496(%rbp), %rax
	movq	%rax, %rcx
	call	_ZNSt6vectorIS_IiSaIiEESaIS1_EEixEm
	movq	%rbx, %rdx
	movq	%rax, %rcx
	call	_ZNSt6vectorIiSaIiEEixEm
	movl	$1, (%rax)
	subl	$1, 460(%rbp)
	jmp	.L6
.L5:
	leaq	-96(%rbp), %rax
	movq	%rax, %rcx
	call	_ZNSt14basic_ifstreamIcSt11char_traitsIcEE5closeEv
	movl	$0, 456(%rbp)
.L10:
	movl	456(%rbp), %eax
	movslq	%eax, %rbx
	movq	496(%rbp), %rax
	movq	%rax, %rcx
	call	_ZNKSt6vectorIS_IiSaIiEESaIS1_EE4sizeEv
	cmpq	%rax, %rbx
	setb	%al
	testb	%al, %al
	je	.L7
	movl	$0, 452(%rbp)
.L9:
	movl	452(%rbp), %eax
	movslq	%eax, %rbx
	movq	496(%rbp), %rax
	movq	%rax, %rcx
	call	_ZNKSt6vectorIS_IiSaIiEESaIS1_EE4sizeEv
	cmpq	%rax, %rbx
	setb	%al
	testb	%al, %al
	je	.L8
	movl	452(%rbp), %eax
	movslq	%eax, %rbx
	movl	456(%rbp), %eax
	movslq	%eax, %rdx
	movq	496(%rbp), %rax
	movq	%rax, %rcx
	call	_ZNSt6vectorIS_IiSaIiEESaIS1_EEixEm
	movq	%rbx, %rdx
	movq	%rax, %rcx
	call	_ZNSt6vectorIiSaIiEEixEm
	movl	(%rax), %eax
	movl	%eax, %edx
	movq	.refptr._ZSt4cout(%rip), %rcx
	call	_ZNSolsEi
	leaq	.LC0(%rip), %rdx
	movq	%rax, %rcx
	call	_ZStlsISt11char_traitsIcEERSt13basic_ostreamIcT_ES5_PKc
	addl	$1, 452(%rbp)
	jmp	.L9
.L8:
	movq	.refptr._ZSt4endlIcSt11char_traitsIcEERSt13basic_ostreamIT_T0_ES6_(%rip), %rdx
	movq	.refptr._ZSt4cout(%rip), %rcx
	call	_ZNSolsEPFRSoS_E
	addl	$1, 456(%rbp)
	jmp	.L10
.L7:
	movq	496(%rbp), %rax
	leaq	24(%rax), %rbx
	movl	$0, 440(%rbp)
	movq	496(%rbp), %rax
	movq	%rax, %rcx
	call	_ZNKSt6vectorIS_IiSaIiEESaIS1_EE4sizeEv
	movq	%rax, %rdx
	leaq	440(%rbp), %rax
	movq	%rax, %r8
	movq	%rbx, %rcx
	call	_ZNSt6vectorIiSaIiEE6resizeEmRKi
.LEHE4:
	movq	496(%rbp), %rax
	movl	$0, 56(%rax)
	movl	$0, 448(%rbp)
.L15:
	movl	448(%rbp), %eax
	movslq	%eax, %rbx
	movq	496(%rbp), %rax
	movq	%rax, %rcx
	call	_ZNKSt6vectorIS_IiSaIiEESaIS1_EE4sizeEv
	cmpq	%rax, %rbx
	setb	%al
	testb	%al, %al
	je	.L11
	movl	$0, 444(%rbp)
.L14:
	movl	444(%rbp), %eax
	movslq	%eax, %rbx
	movq	496(%rbp), %rax
	movq	%rax, %rcx
	call	_ZNKSt6vectorIS_IiSaIiEESaIS1_EE4sizeEv
	cmpq	%rax, %rbx
	setb	%al
	testb	%al, %al
	je	.L12
	movl	444(%rbp), %eax
	movslq	%eax, %rbx
	movl	448(%rbp), %eax
	movslq	%eax, %rdx
	movq	496(%rbp), %rax
	movq	%rax, %rcx
	call	_ZNSt6vectorIS_IiSaIiEESaIS1_EEixEm
	movq	%rbx, %rdx
	movq	%rax, %rcx
	call	_ZNSt6vectorIiSaIiEEixEm
	movl	(%rax), %eax
	cmpl	$1, %eax
	sete	%al
	testb	%al, %al
	je	.L13
	movl	448(%rbp), %eax
	cltq
	movq	496(%rbp), %rdx
	leaq	24(%rdx), %rcx
	movq	%rax, %rdx
	call	_ZNSt6vectorIiSaIiEEixEm
	movl	(%rax), %edx
	addl	$1, %edx
	movl	%edx, (%rax)
.L13:
	addl	$1, 444(%rbp)
	jmp	.L14
.L12:
	addl	$1, 448(%rbp)
	jmp	.L15
.L11:
	leaq	-96(%rbp), %rax
	movq	%rax, %rcx
	call	_ZNSt14basic_ifstreamIcSt11char_traitsIcEED1Ev
	jmp	.L24
.L23:
	movq	%rax, %rbx
	leaq	400(%rbp), %rax
	movq	%rax, %rcx
	call	_ZNSt6vectorIiSaIiEED1Ev
	jmp	.L17
.L22:
	movq	%rax, %rbx
.L17:
	leaq	435(%rbp), %rax
	movq	%rax, %rcx
	call	_ZNSaIiED1Ev
	jmp	.L18
.L21:
	movq	%rax, %rbx
.L18:
	leaq	-96(%rbp), %rax
	movq	%rax, %rcx
	call	_ZNSt14basic_ifstreamIcSt11char_traitsIcEED1Ev
	jmp	.L19
.L20:
	movq	%rax, %rbx
.L19:
	movq	496(%rbp), %rax
	addq	$24, %rax
	movq	%rax, %rcx
	call	_ZNSt6vectorIiSaIiEED1Ev
	movq	496(%rbp), %rax
	movq	%rax, %rcx
	call	_ZNSt6vectorIS_IiSaIiEESaIS1_EED1Ev
	movq	%rbx, %rax
	movq	%rax, %rcx
.LEHB5:
	call	_Unwind_Resume
	nop
.LEHE5:
.L24:
	addq	$600, %rsp
	popq	%rbx
	popq	%rbp
	ret
	.def	__gxx_personality_seh0;	.scl	2;	.type	32;	.endef
	.seh_handler	__gxx_personality_seh0, @unwind, @except
	.seh_handlerdata
.LLSDA2123:
	.byte	0xff
	.byte	0xff
	.byte	0x1
	.uleb128 .LLSDACSE2123-.LLSDACSB2123
.LLSDACSB2123:
	.uleb128 .LEHB0-.LFB2123
	.uleb128 .LEHE0-.LEHB0
	.uleb128 .L20-.LFB2123
	.uleb128 0
	.uleb128 .LEHB1-.LFB2123
	.uleb128 .LEHE1-.LEHB1
	.uleb128 .L21-.LFB2123
	.uleb128 0
	.uleb128 .LEHB2-.LFB2123
	.uleb128 .LEHE2-.LEHB2
	.uleb128 .L22-.LFB2123
	.uleb128 0
	.uleb128 .LEHB3-.LFB2123
	.uleb128 .LEHE3-.LEHB3
	.uleb128 .L23-.LFB2123
	.uleb128 0
	.uleb128 .LEHB4-.LFB2123
	.uleb128 .LEHE4-.LEHB4
	.uleb128 .L21-.LFB2123
	.uleb128 0
	.uleb128 .LEHB5-.LFB2123
	.uleb128 .LEHE5-.LEHB5
	.uleb128 0
	.uleb128 0
.LLSDACSE2123:
	.text
	.seh_endproc
	.globl	_ZN5eulerC1ESs
	.def	_ZN5eulerC1ESs;	.scl	2;	.type	32;	.endef
	.set	_ZN5eulerC1ESs,_ZN5eulerC2ESs
	.section .rdata,"dr"
.LC1:
	.ascii "Could be drawn :)\0"
.LC2:
	.ascii "Could not be drawn :(\0"
	.text
	.align 2
	.globl	_ZN5euler7isEulerEv
	.def	_ZN5euler7isEulerEv;	.scl	2;	.type	32;	.endef
	.seh_proc	_ZN5euler7isEulerEv
_ZN5euler7isEulerEv:
.LFB2125:
	pushq	%rbp
	.seh_pushreg	%rbp
	pushq	%rbx
	.seh_pushreg	%rbx
	subq	$56, %rsp
	.seh_stackalloc	56
	leaq	128(%rsp), %rbp
	.seh_setframe	%rbp, 128
	.seh_endprologue
	movq	%rcx, -48(%rbp)
	movl	$0, -84(%rbp)
.L28:
	movl	-84(%rbp), %eax
	movslq	%eax, %rbx
	movq	-48(%rbp), %rax
	addq	$24, %rax
	movq	%rax, %rcx
	call	_ZNKSt6vectorIiSaIiEE4sizeEv
	cmpq	%rax, %rbx
	setb	%al
	testb	%al, %al
	je	.L26
	movl	-84(%rbp), %eax
	cltq
	movq	-48(%rbp), %rdx
	leaq	24(%rdx), %rcx
	movq	%rax, %rdx
	call	_ZNSt6vectorIiSaIiEEixEm
	movl	(%rax), %eax
	andl	$1, %eax
	testl	%eax, %eax
	setne	%al
	testb	%al, %al
	je	.L27
	movq	-48(%rbp), %rax
	movl	56(%rax), %eax
	leal	1(%rax), %edx
	movq	-48(%rbp), %rax
	movl	%edx, 56(%rax)
	movq	-48(%rbp), %rax
	movl	-84(%rbp), %edx
	movl	%edx, 60(%rax)
.L27:
	addl	$1, -84(%rbp)
	jmp	.L28
.L26:
	movq	-48(%rbp), %rax
	movl	56(%rax), %eax
	testl	%eax, %eax
	je	.L29
	movq	-48(%rbp), %rax
	movl	56(%rax), %eax
	cmpl	$2, %eax
	jne	.L30
.L29:
	leaq	.LC1(%rip), %rdx
	movq	.refptr._ZSt4cout(%rip), %rcx
	call	_ZStlsISt11char_traitsIcEERSt13basic_ostreamIcT_ES5_PKc
	movq	.refptr._ZSt4endlIcSt11char_traitsIcEERSt13basic_ostreamIT_T0_ES6_(%rip), %rdx
	movq	%rax, %rcx
	call	_ZNSolsEPFRSoS_E
	movq	-48(%rbp), %rax
	movl	56(%rax), %eax
	testl	%eax, %eax
	jne	.L31
	movq	-48(%rbp), %rax
	movl	$0, 60(%rax)
.L31:
	movl	$1, %eax
	jmp	.L32
.L30:
	leaq	.LC2(%rip), %rdx
	movq	.refptr._ZSt4cout(%rip), %rcx
	call	_ZStlsISt11char_traitsIcEERSt13basic_ostreamIcT_ES5_PKc
	movq	.refptr._ZSt4endlIcSt11char_traitsIcEERSt13basic_ostreamIT_T0_ES6_(%rip), %rdx
	movq	%rax, %rcx
	call	_ZNSolsEPFRSoS_E
	movl	$0, %eax
.L32:
	addq	$56, %rsp
	popq	%rbx
	popq	%rbp
	ret
	.seh_endproc
	.section	.text$_ZNSt4listIiSaIiEED1Ev,"x"
	.linkonce discard
	.align 2
	.globl	_ZNSt4listIiSaIiEED1Ev
	.def	_ZNSt4listIiSaIiEED1Ev;	.scl	2;	.type	32;	.endef
	.seh_proc	_ZNSt4listIiSaIiEED1Ev
_ZNSt4listIiSaIiEED1Ev:
.LFB2129:
	pushq	%rbp
	.seh_pushreg	%rbp
	movq	%rsp, %rbp
	.seh_setframe	%rbp, 0
	subq	$32, %rsp
	.seh_stackalloc	32
	.seh_endprologue
	movq	%rcx, 16(%rbp)
	movq	16(%rbp), %rax
	movq	%rax, %rcx
	call	_ZNSt10_List_baseIiSaIiEED2Ev
	nop
	addq	$32, %rsp
	popq	%rbp
	ret
	.seh_endproc
	.section .rdata,"dr"
.LC3:
	.ascii "->\0"
	.text
	.align 2
	.globl	_ZN5euler8drawPathEv
	.def	_ZN5euler8drawPathEv;	.scl	2;	.type	32;	.endef
	.seh_proc	_ZN5euler8drawPathEv
_ZN5euler8drawPathEv:
.LFB2126:
	pushq	%rbp
	.seh_pushreg	%rbp
	pushq	%rbx
	.seh_pushreg	%rbx
	subq	$152, %rsp
	.seh_stackalloc	152
	leaq	128(%rsp), %rbp
	.seh_setframe	%rbp, 128
	.seh_endprologue
	movq	%rcx, 48(%rbp)
	leaq	-32(%rbp), %rax
	movq	%rax, %rcx
	call	_ZNSt4listIiSaIiEEC1Ev
	movl	$0, 12(%rbp)
	movq	48(%rbp), %rax
	movl	60(%rax), %eax
	movl	%eax, 8(%rbp)
	movq	48(%rbp), %rax
	leaq	24(%rax), %rdx
	leaq	-64(%rbp), %rax
	movq	%rax, %rcx
.LEHB6:
	call	_ZNSt6vectorIiSaIiEEC1ERKS1_
.LEHE6:
	movl	8(%rbp), %eax
	addl	$1, %eax
	movl	%eax, -8(%rbp)
	leaq	-8(%rbp), %rdx
	leaq	-32(%rbp), %rax
	movq	%rax, %rcx
.LEHB7:
	call	_ZNSt4listIiSaIiEE10push_frontEOi
	movq	48(%rbp), %rdx
	leaq	-96(%rbp), %rax
	movq	%rax, %rcx
	call	_ZNSt6vectorIS_IiSaIiEESaIS1_EEC1ERKS3_
.LEHE7:
.L42:
	movq	48(%rbp), %rax
	movl	48(%rax), %eax
	cmpl	%eax, 12(%rbp)
	jg	.L35
	movl	$0, 4(%rbp)
.L41:
	movq	48(%rbp), %rax
	movl	52(%rax), %eax
	cmpl	%eax, 4(%rbp)
	jge	.L36
	movl	4(%rbp), %eax
	movslq	%eax, %rbx
	movl	8(%rbp), %eax
	movslq	%eax, %rdx
	leaq	-96(%rbp), %rax
	movq	%rax, %rcx
	call	_ZNSt6vectorIS_IiSaIiEESaIS1_EEixEm
	movq	%rbx, %rdx
	movq	%rax, %rcx
	call	_ZNSt6vectorIiSaIiEEixEm
	movl	(%rax), %eax
	cmpl	$1, %eax
	sete	%al
	testb	%al, %al
	je	.L37
	movl	4(%rbp), %eax
	movslq	%eax, %rdx
	leaq	-64(%rbp), %rax
	movq	%rax, %rcx
	call	_ZNSt6vectorIiSaIiEEixEm
	movl	(%rax), %eax
	cmpl	$1, %eax
	setg	%al
	testb	%al, %al
	je	.L38
	movl	4(%rbp), %eax
	addl	$1, %eax
	movl	%eax, -4(%rbp)
	leaq	-4(%rbp), %rdx
	leaq	-32(%rbp), %rax
	movq	%rax, %rcx
.LEHB8:
	call	_ZNSt4listIiSaIiEE10push_frontEOi
	movl	4(%rbp), %eax
	movslq	%eax, %rbx
	movl	8(%rbp), %eax
	movslq	%eax, %rdx
	leaq	-96(%rbp), %rax
	movq	%rax, %rcx
	call	_ZNSt6vectorIS_IiSaIiEESaIS1_EEixEm
	movq	%rbx, %rdx
	movq	%rax, %rcx
	call	_ZNSt6vectorIiSaIiEEixEm
	movl	$0, (%rax)
	movl	8(%rbp), %eax
	movslq	%eax, %rbx
	movl	4(%rbp), %eax
	movslq	%eax, %rdx
	leaq	-96(%rbp), %rax
	movq	%rax, %rcx
	call	_ZNSt6vectorIS_IiSaIiEESaIS1_EEixEm
	movq	%rbx, %rdx
	movq	%rax, %rcx
	call	_ZNSt6vectorIiSaIiEEixEm
	movl	$0, (%rax)
	movl	8(%rbp), %eax
	movslq	%eax, %rdx
	leaq	-64(%rbp), %rax
	movq	%rax, %rcx
	call	_ZNSt6vectorIiSaIiEEixEm
	movl	(%rax), %edx
	subl	$1, %edx
	movl	%edx, (%rax)
	movl	4(%rbp), %eax
	movslq	%eax, %rdx
	leaq	-64(%rbp), %rax
	movq	%rax, %rcx
	call	_ZNSt6vectorIiSaIiEEixEm
	movl	(%rax), %edx
	subl	$1, %edx
	movl	%edx, (%rax)
	movl	4(%rbp), %eax
	movl	%eax, 8(%rbp)
	jmp	.L36
.L38:
	movl	4(%rbp), %eax
	movslq	%eax, %rdx
	leaq	-64(%rbp), %rax
	movq	%rax, %rcx
	call	_ZNSt6vectorIiSaIiEEixEm
	movl	(%rax), %eax
	cmpl	$1, %eax
	jne	.L39
	movq	48(%rbp), %rax
	movl	48(%rax), %eax
	cmpl	%eax, 12(%rbp)
	jne	.L39
	movl	$1, %eax
	jmp	.L40
.L39:
	movl	$0, %eax
.L40:
	testb	%al, %al
	je	.L37
	movl	4(%rbp), %eax
	addl	$1, %eax
	movl	%eax, 0(%rbp)
	movq	%rbp, %rdx
	leaq	-32(%rbp), %rax
	movq	%rax, %rcx
	call	_ZNSt4listIiSaIiEE10push_frontEOi
	movl	4(%rbp), %eax
	movslq	%eax, %rbx
	movl	8(%rbp), %eax
	movslq	%eax, %rdx
	leaq	-96(%rbp), %rax
	movq	%rax, %rcx
	call	_ZNSt6vectorIS_IiSaIiEESaIS1_EEixEm
	movq	%rbx, %rdx
	movq	%rax, %rcx
	call	_ZNSt6vectorIiSaIiEEixEm
	movl	$0, (%rax)
	movl	8(%rbp), %eax
	movslq	%eax, %rbx
	movl	4(%rbp), %eax
	movslq	%eax, %rdx
	leaq	-96(%rbp), %rax
	movq	%rax, %rcx
	call	_ZNSt6vectorIS_IiSaIiEESaIS1_EEixEm
	movq	%rbx, %rdx
	movq	%rax, %rcx
	call	_ZNSt6vectorIiSaIiEEixEm
	movl	$0, (%rax)
	movl	8(%rbp), %eax
	movslq	%eax, %rdx
	leaq	-64(%rbp), %rax
	movq	%rax, %rcx
	call	_ZNSt6vectorIiSaIiEEixEm
	movl	(%rax), %edx
	subl	$1, %edx
	movl	%edx, (%rax)
	movl	4(%rbp), %eax
	movslq	%eax, %rdx
	leaq	-64(%rbp), %rax
	movq	%rax, %rcx
	call	_ZNSt6vectorIiSaIiEEixEm
	movl	(%rax), %edx
	subl	$1, %edx
	movl	%edx, (%rax)
	jmp	.L36
.L37:
	addl	$1, 4(%rbp)
	jmp	.L41
.L36:
	addl	$1, 12(%rbp)
	jmp	.L42
.L35:
	leaq	-32(%rbp), %rax
	movq	%rax, %rcx
	call	_ZNKSt4listIiSaIiEE4sizeEv
	leaq	-1(%rax), %rdx
	movq	48(%rbp), %rax
	movl	48(%rax), %eax
	cltq
	cmpq	%rax, %rdx
	setne	%al
	testb	%al, %al
	je	.L45
	movq	48(%rbp), %rax
	movl	60(%rax), %eax
	leal	1(%rax), %edx
	movq	48(%rbp), %rax
	movl	%edx, 60(%rax)
	leaq	-32(%rbp), %rax
	movq	%rax, %rcx
	call	_ZNSt4listIiSaIiEE5clearEv
	movq	48(%rbp), %rcx
	call	_ZN5euler8drawPathEv
.L45:
	leaq	-32(%rbp), %rax
	movq	%rax, %rcx
	call	_ZNKSt4listIiSaIiEE5emptyEv
	xorl	$1, %eax
	testb	%al, %al
	je	.L55
	leaq	-32(%rbp), %rax
	movq	%rax, %rcx
	call	_ZNSt4listIiSaIiEE4backEv
	movl	(%rax), %eax
	movl	%eax, %edx
	movq	.refptr._ZSt4cout(%rip), %rcx
	call	_ZNSolsEi
	leaq	.LC3(%rip), %rdx
	movq	%rax, %rcx
	call	_ZStlsISt11char_traitsIcEERSt13basic_ostreamIcT_ES5_PKc
.LEHE8:
	leaq	-32(%rbp), %rax
	movq	%rax, %rcx
	call	_ZNSt4listIiSaIiEE8pop_backEv
	jmp	.L45
.L55:
	nop
	leaq	-96(%rbp), %rax
	movq	%rax, %rcx
	call	_ZNSt6vectorIS_IiSaIiEESaIS1_EED1Ev
	leaq	-64(%rbp), %rax
	movq	%rax, %rcx
	call	_ZNSt6vectorIiSaIiEED1Ev
	leaq	-32(%rbp), %rax
	movq	%rax, %rcx
	call	_ZNSt4listIiSaIiEED1Ev
	jmp	.L54
.L52:
	movq	%rax, %rbx
	leaq	-96(%rbp), %rax
	movq	%rax, %rcx
	call	_ZNSt6vectorIS_IiSaIiEESaIS1_EED1Ev
	jmp	.L48
.L51:
	movq	%rax, %rbx
.L48:
	leaq	-64(%rbp), %rax
	movq	%rax, %rcx
	call	_ZNSt6vectorIiSaIiEED1Ev
	jmp	.L49
.L50:
	movq	%rax, %rbx
.L49:
	leaq	-32(%rbp), %rax
	movq	%rax, %rcx
	call	_ZNSt4listIiSaIiEED1Ev
	movq	%rbx, %rax
	movq	%rax, %rcx
.LEHB9:
	call	_Unwind_Resume
	nop
.LEHE9:
.L54:
	addq	$152, %rsp
	popq	%rbx
	popq	%rbp
	ret
	.seh_handler	__gxx_personality_seh0, @unwind, @except
	.seh_handlerdata
.LLSDA2126:
	.byte	0xff
	.byte	0xff
	.byte	0x1
	.uleb128 .LLSDACSE2126-.LLSDACSB2126
.LLSDACSB2126:
	.uleb128 .LEHB6-.LFB2126
	.uleb128 .LEHE6-.LEHB6
	.uleb128 .L50-.LFB2126
	.uleb128 0
	.uleb128 .LEHB7-.LFB2126
	.uleb128 .LEHE7-.LEHB7
	.uleb128 .L51-.LFB2126
	.uleb128 0
	.uleb128 .LEHB8-.LFB2126
	.uleb128 .LEHE8-.LEHB8
	.uleb128 .L52-.LFB2126
	.uleb128 0
	.uleb128 .LEHB9-.LFB2126
	.uleb128 .LEHE9-.LEHB9
	.uleb128 0
	.uleb128 0
.LLSDACSE2126:
	.text
	.seh_endproc
	.section	.text$_ZNSt6vectorIS_IiSaIiEESaIS1_EEC1Ev,"x"
	.linkonce discard
	.align 2
	.globl	_ZNSt6vectorIS_IiSaIiEESaIS1_EEC1Ev
	.def	_ZNSt6vectorIS_IiSaIiEESaIS1_EEC1Ev;	.scl	2;	.type	32;	.endef
	.seh_proc	_ZNSt6vectorIS_IiSaIiEESaIS1_EEC1Ev
_ZNSt6vectorIS_IiSaIiEESaIS1_EEC1Ev:
.LFB2393:
	pushq	%rbp
	.seh_pushreg	%rbp
	movq	%rsp, %rbp
	.seh_setframe	%rbp, 0
	subq	$32, %rsp
	.seh_stackalloc	32
	.seh_endprologue
	movq	%rcx, 16(%rbp)
	movq	16(%rbp), %rax
	movq	%rax, %rcx
	call	_ZNSt12_Vector_baseISt6vectorIiSaIiEESaIS2_EEC2Ev
	nop
	addq	$32, %rsp
	popq	%rbp
	ret
	.seh_handler	__gxx_personality_seh0, @unwind, @except
	.seh_handlerdata
.LLSDA2393:
	.byte	0xff
	.byte	0xff
	.byte	0x1
	.uleb128 .LLSDACSE2393-.LLSDACSB2393
.LLSDACSB2393:
.LLSDACSE2393:
	.section	.text$_ZNSt6vectorIS_IiSaIiEESaIS1_EEC1Ev,"x"
	.linkonce discard
	.seh_endproc
	.section	.text$_ZNSt6vectorIS_IiSaIiEESaIS1_EED1Ev,"x"
	.linkonce discard
	.align 2
	.globl	_ZNSt6vectorIS_IiSaIiEESaIS1_EED1Ev
	.def	_ZNSt6vectorIS_IiSaIiEESaIS1_EED1Ev;	.scl	2;	.type	32;	.endef
	.seh_proc	_ZNSt6vectorIS_IiSaIiEESaIS1_EED1Ev
_ZNSt6vectorIS_IiSaIiEESaIS1_EED1Ev:
.LFB2396:
	pushq	%rbp
	.seh_pushreg	%rbp
	movq	%rsp, %rbp
	.seh_setframe	%rbp, 0
	subq	$32, %rsp
	.seh_stackalloc	32
	.seh_endprologue
	movq	%rcx, 16(%rbp)
	movq	16(%rbp), %rax
	movq	%rax, %rcx
	call	_ZNSt12_Vector_baseISt6vectorIiSaIiEESaIS2_EE19_M_get_Tp_allocatorEv
	movq	%rax, %rcx
	movq	16(%rbp), %rax
	movq	8(%rax), %rdx
	movq	16(%rbp), %rax
	movq	(%rax), %rax
	movq	%rcx, %r8
	movq	%rax, %rcx
	call	_ZSt8_DestroyIPSt6vectorIiSaIiEES2_EvT_S4_RSaIT0_E
	movq	16(%rbp), %rax
	movq	%rax, %rcx
	call	_ZNSt12_Vector_baseISt6vectorIiSaIiEESaIS2_EED2Ev
	nop
	addq	$32, %rsp
	popq	%rbp
	ret
	.seh_handler	__gxx_personality_seh0, @unwind, @except
	.seh_handlerdata
.LLSDA2396:
	.byte	0xff
	.byte	0xff
	.byte	0x1
	.uleb128 .LLSDACSE2396-.LLSDACSB2396
.LLSDACSB2396:
.LLSDACSE2396:
	.section	.text$_ZNSt6vectorIS_IiSaIiEESaIS1_EED1Ev,"x"
	.linkonce discard
	.seh_endproc
	.section	.text$_ZNSt6vectorIiSaIiEEC1Ev,"x"
	.linkonce discard
	.align 2
	.globl	_ZNSt6vectorIiSaIiEEC1Ev
	.def	_ZNSt6vectorIiSaIiEEC1Ev;	.scl	2;	.type	32;	.endef
	.seh_proc	_ZNSt6vectorIiSaIiEEC1Ev
_ZNSt6vectorIiSaIiEEC1Ev:
.LFB2399:
	pushq	%rbp
	.seh_pushreg	%rbp
	movq	%rsp, %rbp
	.seh_setframe	%rbp, 0
	subq	$32, %rsp
	.seh_stackalloc	32
	.seh_endprologue
	movq	%rcx, 16(%rbp)
	movq	16(%rbp), %rax
	movq	%rax, %rcx
	call	_ZNSt12_Vector_baseIiSaIiEEC2Ev
	nop
	addq	$32, %rsp
	popq	%rbp
	ret
	.seh_handler	__gxx_personality_seh0, @unwind, @except
	.seh_handlerdata
.LLSDA2399:
	.byte	0xff
	.byte	0xff
	.byte	0x1
	.uleb128 .LLSDACSE2399-.LLSDACSB2399
.LLSDACSB2399:
.LLSDACSE2399:
	.section	.text$_ZNSt6vectorIiSaIiEEC1Ev,"x"
	.linkonce discard
	.seh_endproc
	.section	.text$_ZNSt6vectorIiSaIiEED1Ev,"x"
	.linkonce discard
	.align 2
	.globl	_ZNSt6vectorIiSaIiEED1Ev
	.def	_ZNSt6vectorIiSaIiEED1Ev;	.scl	2;	.type	32;	.endef
	.seh_proc	_ZNSt6vectorIiSaIiEED1Ev
_ZNSt6vectorIiSaIiEED1Ev:
.LFB2402:
	pushq	%rbp
	.seh_pushreg	%rbp
	movq	%rsp, %rbp
	.seh_setframe	%rbp, 0
	subq	$32, %rsp
	.seh_stackalloc	32
	.seh_endprologue
	movq	%rcx, 16(%rbp)
	movq	16(%rbp), %rax
	movq	%rax, %rcx
	call	_ZNSt12_Vector_baseIiSaIiEE19_M_get_Tp_allocatorEv
	movq	%rax, %rcx
	movq	16(%rbp), %rax
	movq	8(%rax), %rdx
	movq	16(%rbp), %rax
	movq	(%rax), %rax
	movq	%rcx, %r8
	movq	%rax, %rcx
	call	_ZSt8_DestroyIPiiEvT_S1_RSaIT0_E
	movq	16(%rbp), %rax
	movq	%rax, %rcx
	call	_ZNSt12_Vector_baseIiSaIiEED2Ev
	nop
	addq	$32, %rsp
	popq	%rbp
	ret
	.seh_handler	__gxx_personality_seh0, @unwind, @except
	.seh_handlerdata
.LLSDA2402:
	.byte	0xff
	.byte	0xff
	.byte	0x1
	.uleb128 .LLSDACSE2402-.LLSDACSB2402
.LLSDACSB2402:
.LLSDACSE2402:
	.section	.text$_ZNSt6vectorIiSaIiEED1Ev,"x"
	.linkonce discard
	.seh_endproc
	.section	.text$_ZNSaIiEC2Ev,"x"
	.linkonce discard
	.align 2
	.globl	_ZNSaIiEC2Ev
	.def	_ZNSaIiEC2Ev;	.scl	2;	.type	32;	.endef
	.seh_proc	_ZNSaIiEC2Ev
_ZNSaIiEC2Ev:
.LFB2412:
	pushq	%rbp
	.seh_pushreg	%rbp
	movq	%rsp, %rbp
	.seh_setframe	%rbp, 0
	subq	$32, %rsp
	.seh_stackalloc	32
	.seh_endprologue
	movq	%rcx, 16(%rbp)
	movq	16(%rbp), %rcx
	call	_ZN9__gnu_cxx13new_allocatorIiEC2Ev
	nop
	addq	$32, %rsp
	popq	%rbp
	ret
	.seh_endproc
	.section	.text$_ZNSaIiEC1Ev,"x"
	.linkonce discard
	.align 2
	.globl	_ZNSaIiEC1Ev
	.def	_ZNSaIiEC1Ev;	.scl	2;	.type	32;	.endef
	.seh_proc	_ZNSaIiEC1Ev
_ZNSaIiEC1Ev:
.LFB2413:
	pushq	%rbp
	.seh_pushreg	%rbp
	movq	%rsp, %rbp
	.seh_setframe	%rbp, 0
	subq	$32, %rsp
	.seh_stackalloc	32
	.seh_endprologue
	movq	%rcx, 16(%rbp)
	movq	16(%rbp), %rcx
	call	_ZN9__gnu_cxx13new_allocatorIiEC2Ev
	nop
	addq	$32, %rsp
	popq	%rbp
	ret
	.seh_endproc
	.section	.text$_ZNSaIiED2Ev,"x"
	.linkonce discard
	.align 2
	.globl	_ZNSaIiED2Ev
	.def	_ZNSaIiED2Ev;	.scl	2;	.type	32;	.endef
	.seh_proc	_ZNSaIiED2Ev
_ZNSaIiED2Ev:
.LFB2415:
	pushq	%rbp
	.seh_pushreg	%rbp
	movq	%rsp, %rbp
	.seh_setframe	%rbp, 0
	subq	$32, %rsp
	.seh_stackalloc	32
	.seh_endprologue
	movq	%rcx, 16(%rbp)
	movq	16(%rbp), %rcx
	call	_ZN9__gnu_cxx13new_allocatorIiED2Ev
	nop
	addq	$32, %rsp
	popq	%rbp
	ret
	.seh_endproc
	.section	.text$_ZNSaIiED1Ev,"x"
	.linkonce discard
	.align 2
	.globl	_ZNSaIiED1Ev
	.def	_ZNSaIiED1Ev;	.scl	2;	.type	32;	.endef
	.seh_proc	_ZNSaIiED1Ev
_ZNSaIiED1Ev:
.LFB2416:
	pushq	%rbp
	.seh_pushreg	%rbp
	movq	%rsp, %rbp
	.seh_setframe	%rbp, 0
	subq	$32, %rsp
	.seh_stackalloc	32
	.seh_endprologue
	movq	%rcx, 16(%rbp)
	movq	16(%rbp), %rcx
	call	_ZN9__gnu_cxx13new_allocatorIiED2Ev
	nop
	addq	$32, %rsp
	popq	%rbp
	ret
	.seh_endproc
	.section	.text$_ZNSt6vectorIiSaIiEEC1EmRKiRKS0_,"x"
	.linkonce discard
	.align 2
	.globl	_ZNSt6vectorIiSaIiEEC1EmRKiRKS0_
	.def	_ZNSt6vectorIiSaIiEEC1EmRKiRKS0_;	.scl	2;	.type	32;	.endef
	.seh_proc	_ZNSt6vectorIiSaIiEEC1EmRKiRKS0_
_ZNSt6vectorIiSaIiEEC1EmRKiRKS0_:
.LFB2419:
	pushq	%rbp
	.seh_pushreg	%rbp
	pushq	%rbx
	.seh_pushreg	%rbx
	subq	$40, %rsp
	.seh_stackalloc	40
	leaq	128(%rsp), %rbp
	.seh_setframe	%rbp, 128
	.seh_endprologue
	movq	%rcx, -64(%rbp)
	movq	%rdx, -56(%rbp)
	movq	%r8, -48(%rbp)
	movq	%r9, -40(%rbp)
	movq	-64(%rbp), %rax
	movq	-40(%rbp), %rcx
	movq	-56(%rbp), %rdx
	movq	%rcx, %r8
	movq	%rax, %rcx
.LEHB10:
	call	_ZNSt12_Vector_baseIiSaIiEEC2EmRKS0_
.LEHE10:
	movq	-48(%rbp), %rdx
	movq	-56(%rbp), %rax
	movq	%rdx, %r8
	movq	%rax, %rdx
	movq	-64(%rbp), %rcx
.LEHB11:
	call	_ZNSt6vectorIiSaIiEE18_M_fill_initializeEmRKi
.LEHE11:
	jmp	.L67
.L66:
	movq	%rax, %rbx
	movq	-64(%rbp), %rax
	movq	%rax, %rcx
	call	_ZNSt12_Vector_baseIiSaIiEED2Ev
	movq	%rbx, %rax
	movq	%rax, %rcx
.LEHB12:
	call	_Unwind_Resume
	nop
.LEHE12:
.L67:
	addq	$40, %rsp
	popq	%rbx
	popq	%rbp
	ret
	.seh_handler	__gxx_personality_seh0, @unwind, @except
	.seh_handlerdata
.LLSDA2419:
	.byte	0xff
	.byte	0xff
	.byte	0x1
	.uleb128 .LLSDACSE2419-.LLSDACSB2419
.LLSDACSB2419:
	.uleb128 .LEHB10-.LFB2419
	.uleb128 .LEHE10-.LEHB10
	.uleb128 0
	.uleb128 0
	.uleb128 .LEHB11-.LFB2419
	.uleb128 .LEHE11-.LEHB11
	.uleb128 .L66-.LFB2419
	.uleb128 0
	.uleb128 .LEHB12-.LFB2419
	.uleb128 .LEHE12-.LEHB12
	.uleb128 0
	.uleb128 0
.LLSDACSE2419:
	.section	.text$_ZNSt6vectorIiSaIiEEC1EmRKiRKS0_,"x"
	.linkonce discard
	.seh_endproc
	.section	.text$_ZNSt6vectorIS_IiSaIiEESaIS1_EE6resizeEmRKS1_,"x"
	.linkonce discard
	.align 2
	.globl	_ZNSt6vectorIS_IiSaIiEESaIS1_EE6resizeEmRKS1_
	.def	_ZNSt6vectorIS_IiSaIiEESaIS1_EE6resizeEmRKS1_;	.scl	2;	.type	32;	.endef
	.seh_proc	_ZNSt6vectorIS_IiSaIiEESaIS1_EE6resizeEmRKS1_
_ZNSt6vectorIS_IiSaIiEESaIS1_EE6resizeEmRKS1_:
.LFB2420:
	pushq	%rbp
	.seh_pushreg	%rbp
	pushq	%rbx
	.seh_pushreg	%rbx
	subq	$40, %rsp
	.seh_stackalloc	40
	leaq	128(%rsp), %rbp
	.seh_setframe	%rbp, 128
	.seh_endprologue
	movq	%rcx, -64(%rbp)
	movq	%rdx, -56(%rbp)
	movq	%r8, -48(%rbp)
	movq	-64(%rbp), %rcx
	call	_ZNKSt6vectorIS_IiSaIiEESaIS1_EE4sizeEv
	cmpq	%rax, -56(%rbp)
	seta	%al
	testb	%al, %al
	je	.L69
	movq	-64(%rbp), %rcx
	call	_ZNKSt6vectorIS_IiSaIiEESaIS1_EE4sizeEv
	movq	%rax, %rdx
	movq	-56(%rbp), %rax
	subq	%rdx, %rax
	movq	%rax, %rbx
	movq	-64(%rbp), %rcx
	call	_ZNSt6vectorIS_IiSaIiEESaIS1_EE3endEv
	movq	%rax, %rdx
	movq	-48(%rbp), %rax
	movq	%rax, %r9
	movq	%rbx, %r8
	movq	-64(%rbp), %rcx
	call	_ZNSt6vectorIS_IiSaIiEESaIS1_EE14_M_fill_insertEN9__gnu_cxx17__normal_iteratorIPS1_S3_EEmRKS1_
	jmp	.L71
.L69:
	movq	-64(%rbp), %rcx
	call	_ZNKSt6vectorIS_IiSaIiEESaIS1_EE4sizeEv
	cmpq	%rax, -56(%rbp)
	setb	%al
	testb	%al, %al
	je	.L71
	movq	-64(%rbp), %rax
	movq	(%rax), %rcx
	movq	-56(%rbp), %rdx
	movq	%rdx, %rax
	addq	%rax, %rax
	addq	%rdx, %rax
	salq	$3, %rax
	addq	%rcx, %rax
	movq	%rax, %rdx
	movq	-64(%rbp), %rcx
	call	_ZNSt6vectorIS_IiSaIiEESaIS1_EE15_M_erase_at_endEPS1_
.L71:
	nop
	addq	$40, %rsp
	popq	%rbx
	popq	%rbp
	ret
	.seh_endproc
	.section	.text$_ZNSt6vectorIS_IiSaIiEESaIS1_EEixEm,"x"
	.linkonce discard
	.align 2
	.globl	_ZNSt6vectorIS_IiSaIiEESaIS1_EEixEm
	.def	_ZNSt6vectorIS_IiSaIiEESaIS1_EEixEm;	.scl	2;	.type	32;	.endef
	.seh_proc	_ZNSt6vectorIS_IiSaIiEESaIS1_EEixEm
_ZNSt6vectorIS_IiSaIiEESaIS1_EEixEm:
.LFB2421:
	pushq	%rbp
	.seh_pushreg	%rbp
	movq	%rsp, %rbp
	.seh_setframe	%rbp, 0
	.seh_endprologue
	movq	%rcx, 16(%rbp)
	movq	%rdx, 24(%rbp)
	movq	16(%rbp), %rax
	movq	(%rax), %rcx
	movq	24(%rbp), %rdx
	movq	%rdx, %rax
	addq	%rax, %rax
	addq	%rdx, %rax
	salq	$3, %rax
	addq	%rcx, %rax
	popq	%rbp
	ret
	.seh_endproc
	.section	.text$_ZNSt6vectorIiSaIiEEixEm,"x"
	.linkonce discard
	.align 2
	.globl	_ZNSt6vectorIiSaIiEEixEm
	.def	_ZNSt6vectorIiSaIiEEixEm;	.scl	2;	.type	32;	.endef
	.seh_proc	_ZNSt6vectorIiSaIiEEixEm
_ZNSt6vectorIiSaIiEEixEm:
.LFB2422:
	pushq	%rbp
	.seh_pushreg	%rbp
	movq	%rsp, %rbp
	.seh_setframe	%rbp, 0
	.seh_endprologue
	movq	%rcx, 16(%rbp)
	movq	%rdx, 24(%rbp)
	movq	16(%rbp), %rax
	movq	(%rax), %rax
	movq	24(%rbp), %rdx
	salq	$2, %rdx
	addq	%rdx, %rax
	popq	%rbp
	ret
	.seh_endproc
	.section	.text$_ZNKSt6vectorIS_IiSaIiEESaIS1_EE4sizeEv,"x"
	.linkonce discard
	.align 2
	.globl	_ZNKSt6vectorIS_IiSaIiEESaIS1_EE4sizeEv
	.def	_ZNKSt6vectorIS_IiSaIiEESaIS1_EE4sizeEv;	.scl	2;	.type	32;	.endef
	.seh_proc	_ZNKSt6vectorIS_IiSaIiEESaIS1_EE4sizeEv
_ZNKSt6vectorIS_IiSaIiEESaIS1_EE4sizeEv:
.LFB2424:
	pushq	%rbp
	.seh_pushreg	%rbp
	movq	%rsp, %rbp
	.seh_setframe	%rbp, 0
	.seh_endprologue
	movq	%rcx, 16(%rbp)
	movq	16(%rbp), %rax
	movq	8(%rax), %rax
	movq	%rax, %rdx
	movq	16(%rbp), %rax
	movq	(%rax), %rax
	subq	%rax, %rdx
	movq	%rdx, %rax
	sarq	$3, %rax
	movq	%rax, %rdx
	movabsq	$-6148914691236517205, %rax
	imulq	%rdx, %rax
	popq	%rbp
	ret
	.seh_endproc
	.section	.text$_ZNSt6vectorIiSaIiEE6resizeEmRKi,"x"
	.linkonce discard
	.align 2
	.globl	_ZNSt6vectorIiSaIiEE6resizeEmRKi
	.def	_ZNSt6vectorIiSaIiEE6resizeEmRKi;	.scl	2;	.type	32;	.endef
	.seh_proc	_ZNSt6vectorIiSaIiEE6resizeEmRKi
_ZNSt6vectorIiSaIiEE6resizeEmRKi:
.LFB2428:
	pushq	%rbp
	.seh_pushreg	%rbp
	pushq	%rbx
	.seh_pushreg	%rbx
	subq	$40, %rsp
	.seh_stackalloc	40
	leaq	128(%rsp), %rbp
	.seh_setframe	%rbp, 128
	.seh_endprologue
	movq	%rcx, -64(%rbp)
	movq	%rdx, -56(%rbp)
	movq	%r8, -48(%rbp)
	movq	-64(%rbp), %rcx
	call	_ZNKSt6vectorIiSaIiEE4sizeEv
	cmpq	%rax, -56(%rbp)
	seta	%al
	testb	%al, %al
	je	.L79
	movq	-64(%rbp), %rcx
	call	_ZNKSt6vectorIiSaIiEE4sizeEv
	movq	%rax, %rdx
	movq	-56(%rbp), %rax
	subq	%rdx, %rax
	movq	%rax, %rbx
	movq	-64(%rbp), %rcx
	call	_ZNSt6vectorIiSaIiEE3endEv
	movq	%rax, %rdx
	movq	-48(%rbp), %rax
	movq	%rax, %r9
	movq	%rbx, %r8
	movq	-64(%rbp), %rcx
	call	_ZNSt6vectorIiSaIiEE14_M_fill_insertEN9__gnu_cxx17__normal_iteratorIPiS1_EEmRKi
	jmp	.L81
.L79:
	movq	-64(%rbp), %rcx
	call	_ZNKSt6vectorIiSaIiEE4sizeEv
	cmpq	%rax, -56(%rbp)
	setb	%al
	testb	%al, %al
	je	.L81
	movq	-64(%rbp), %rax
	movq	(%rax), %rax
	movq	-56(%rbp), %rdx
	salq	$2, %rdx
	addq	%rdx, %rax
	movq	%rax, %rdx
	movq	-64(%rbp), %rcx
	call	_ZNSt6vectorIiSaIiEE15_M_erase_at_endEPi
.L81:
	nop
	addq	$40, %rsp
	popq	%rbx
	popq	%rbp
	ret
	.seh_endproc
	.section	.text$_ZNKSt6vectorIiSaIiEE4sizeEv,"x"
	.linkonce discard
	.align 2
	.globl	_ZNKSt6vectorIiSaIiEE4sizeEv
	.def	_ZNKSt6vectorIiSaIiEE4sizeEv;	.scl	2;	.type	32;	.endef
	.seh_proc	_ZNKSt6vectorIiSaIiEE4sizeEv
_ZNKSt6vectorIiSaIiEE4sizeEv:
.LFB2429:
	pushq	%rbp
	.seh_pushreg	%rbp
	movq	%rsp, %rbp
	.seh_setframe	%rbp, 0
	.seh_endprologue
	movq	%rcx, 16(%rbp)
	movq	16(%rbp), %rax
	movq	8(%rax), %rax
	movq	%rax, %rdx
	movq	16(%rbp), %rax
	movq	(%rax), %rax
	subq	%rax, %rdx
	movq	%rdx, %rax
	sarq	$2, %rax
	popq	%rbp
	ret
	.seh_endproc
	.section	.text$_ZNSt4listIiSaIiEEC1Ev,"x"
	.linkonce discard
	.align 2
	.globl	_ZNSt4listIiSaIiEEC1Ev
	.def	_ZNSt4listIiSaIiEEC1Ev;	.scl	2;	.type	32;	.endef
	.seh_proc	_ZNSt4listIiSaIiEEC1Ev
_ZNSt4listIiSaIiEEC1Ev:
.LFB2432:
	pushq	%rbp
	.seh_pushreg	%rbp
	movq	%rsp, %rbp
	.seh_setframe	%rbp, 0
	subq	$32, %rsp
	.seh_stackalloc	32
	.seh_endprologue
	movq	%rcx, 16(%rbp)
	movq	16(%rbp), %rax
	movq	%rax, %rcx
	call	_ZNSt10_List_baseIiSaIiEEC2Ev
	nop
	addq	$32, %rsp
	popq	%rbp
	ret
	.seh_endproc
	.section	.text$_ZNSt10_List_baseIiSaIiEE10_List_implD1Ev,"x"
	.linkonce discard
	.align 2
	.globl	_ZNSt10_List_baseIiSaIiEE10_List_implD1Ev
	.def	_ZNSt10_List_baseIiSaIiEE10_List_implD1Ev;	.scl	2;	.type	32;	.endef
	.seh_proc	_ZNSt10_List_baseIiSaIiEE10_List_implD1Ev
_ZNSt10_List_baseIiSaIiEE10_List_implD1Ev:
.LFB2436:
	pushq	%rbp
	.seh_pushreg	%rbp
	movq	%rsp, %rbp
	.seh_setframe	%rbp, 0
	subq	$32, %rsp
	.seh_stackalloc	32
	.seh_endprologue
	movq	%rcx, 16(%rbp)
	movq	16(%rbp), %rcx
	call	_ZNSaISt10_List_nodeIiEED2Ev
	nop
	addq	$32, %rsp
	popq	%rbp
	ret
	.seh_endproc
	.section	.text$_ZNSt10_List_baseIiSaIiEED2Ev,"x"
	.linkonce discard
	.align 2
	.globl	_ZNSt10_List_baseIiSaIiEED2Ev
	.def	_ZNSt10_List_baseIiSaIiEED2Ev;	.scl	2;	.type	32;	.endef
	.seh_proc	_ZNSt10_List_baseIiSaIiEED2Ev
_ZNSt10_List_baseIiSaIiEED2Ev:
.LFB2437:
	pushq	%rbp
	.seh_pushreg	%rbp
	movq	%rsp, %rbp
	.seh_setframe	%rbp, 0
	subq	$32, %rsp
	.seh_stackalloc	32
	.seh_endprologue
	movq	%rcx, 16(%rbp)
	movq	16(%rbp), %rcx
	call	_ZNSt10_List_baseIiSaIiEE8_M_clearEv
	movq	16(%rbp), %rax
	movq	%rax, %rcx
	call	_ZNSt10_List_baseIiSaIiEE10_List_implD1Ev
	nop
	addq	$32, %rsp
	popq	%rbp
	ret
	.seh_endproc
	.section	.text$_ZNSt6vectorIiSaIiEEC1ERKS1_,"x"
	.linkonce discard
	.align 2
	.globl	_ZNSt6vectorIiSaIiEEC1ERKS1_
	.def	_ZNSt6vectorIiSaIiEEC1ERKS1_;	.scl	2;	.type	32;	.endef
	.seh_proc	_ZNSt6vectorIiSaIiEEC1ERKS1_
_ZNSt6vectorIiSaIiEEC1ERKS1_:
.LFB2441:
	pushq	%rbp
	.seh_pushreg	%rbp
	pushq	%rdi
	.seh_pushreg	%rdi
	pushq	%rsi
	.seh_pushreg	%rsi
	pushq	%rbx
	.seh_pushreg	%rbx
	subq	$56, %rsp
	.seh_stackalloc	56
	leaq	128(%rsp), %rbp
	.seh_setframe	%rbp, 128
	.seh_endprologue
	movq	%rcx, -32(%rbp)
	movq	%rdx, -24(%rbp)
	movq	-32(%rbp), %rbx
	movq	-24(%rbp), %rax
	movq	%rax, %rcx
	call	_ZNKSt12_Vector_baseIiSaIiEE19_M_get_Tp_allocatorEv
	movq	%rax, %rdx
	leaq	-81(%rbp), %rax
	movq	%rax, %rcx
.LEHB13:
	call	_ZN9__gnu_cxx14__alloc_traitsISaIiEE17_S_select_on_copyERKS1_
.LEHE13:
	movq	-24(%rbp), %rax
	movq	%rax, %rcx
	call	_ZNKSt6vectorIiSaIiEE4sizeEv
	movq	%rax, %rdx
	leaq	-81(%rbp), %rax
	movq	%rax, %r8
	movq	%rbx, %rcx
.LEHB14:
	call	_ZNSt12_Vector_baseIiSaIiEEC2EmRKS0_
.LEHE14:
	leaq	-81(%rbp), %rax
	movq	%rax, %rcx
	call	_ZNSaIiED1Ev
	movq	-32(%rbp), %rax
	movq	%rax, %rcx
	call	_ZNSt12_Vector_baseIiSaIiEE19_M_get_Tp_allocatorEv
	movq	%rax, %rdi
	movq	-32(%rbp), %rax
	movq	(%rax), %rbx
	movq	-24(%rbp), %rax
	movq	%rax, %rcx
	call	_ZNKSt6vectorIiSaIiEE3endEv
	movq	%rax, %rsi
	movq	-24(%rbp), %rax
	movq	%rax, %rcx
	call	_ZNKSt6vectorIiSaIiEE5beginEv
	movq	%rdi, %r9
	movq	%rbx, %r8
	movq	%rsi, %rdx
	movq	%rax, %rcx
.LEHB15:
	call	_ZSt22__uninitialized_copy_aIN9__gnu_cxx17__normal_iteratorIPKiSt6vectorIiSaIiEEEEPiiET0_T_SA_S9_RSaIT1_E
.LEHE15:
	movq	%rax, %rdx
	movq	-32(%rbp), %rax
	movq	%rdx, 8(%rax)
	jmp	.L92
.L90:
	movq	%rax, %rbx
	leaq	-81(%rbp), %rax
	movq	%rax, %rcx
	call	_ZNSaIiED1Ev
	movq	%rbx, %rax
	movq	%rax, %rcx
.LEHB16:
	call	_Unwind_Resume
.L91:
	movq	%rax, %rbx
	movq	-32(%rbp), %rax
	movq	%rax, %rcx
	call	_ZNSt12_Vector_baseIiSaIiEED2Ev
	movq	%rbx, %rax
	movq	%rax, %rcx
	call	_Unwind_Resume
	nop
.LEHE16:
.L92:
	addq	$56, %rsp
	popq	%rbx
	popq	%rsi
	popq	%rdi
	popq	%rbp
	ret
	.seh_handler	__gxx_personality_seh0, @unwind, @except
	.seh_handlerdata
.LLSDA2441:
	.byte	0xff
	.byte	0xff
	.byte	0x1
	.uleb128 .LLSDACSE2441-.LLSDACSB2441
.LLSDACSB2441:
	.uleb128 .LEHB13-.LFB2441
	.uleb128 .LEHE13-.LEHB13
	.uleb128 0
	.uleb128 0
	.uleb128 .LEHB14-.LFB2441
	.uleb128 .LEHE14-.LEHB14
	.uleb128 .L90-.LFB2441
	.uleb128 0
	.uleb128 .LEHB15-.LFB2441
	.uleb128 .LEHE15-.LEHB15
	.uleb128 .L91-.LFB2441
	.uleb128 0
	.uleb128 .LEHB16-.LFB2441
	.uleb128 .LEHE16-.LEHB16
	.uleb128 0
	.uleb128 0
.LLSDACSE2441:
	.section	.text$_ZNSt6vectorIiSaIiEEC1ERKS1_,"x"
	.linkonce discard
	.seh_endproc
	.section	.text$_ZNSt4listIiSaIiEE10push_frontEOi,"x"
	.linkonce discard
	.align 2
	.globl	_ZNSt4listIiSaIiEE10push_frontEOi
	.def	_ZNSt4listIiSaIiEE10push_frontEOi;	.scl	2;	.type	32;	.endef
	.seh_proc	_ZNSt4listIiSaIiEE10push_frontEOi
_ZNSt4listIiSaIiEE10push_frontEOi:
.LFB2442:
	pushq	%rbp
	.seh_pushreg	%rbp
	pushq	%rbx
	.seh_pushreg	%rbx
	subq	$40, %rsp
	.seh_stackalloc	40
	leaq	128(%rsp), %rbp
	.seh_setframe	%rbp, 128
	.seh_endprologue
	movq	%rcx, -64(%rbp)
	movq	%rdx, -56(%rbp)
	movq	-56(%rbp), %rax
	movq	%rax, %rcx
	call	_ZSt4moveIRiEONSt16remove_referenceIT_E4typeEOS2_
	movq	%rax, %rbx
	movq	-64(%rbp), %rcx
	call	_ZNSt4listIiSaIiEE5beginEv
	movq	%rbx, %r8
	movq	%rax, %rdx
	movq	-64(%rbp), %rcx
	call	_ZNSt4listIiSaIiEE9_M_insertIJiEEEvSt14_List_iteratorIiEDpOT_
	nop
	addq	$40, %rsp
	popq	%rbx
	popq	%rbp
	ret
	.seh_endproc
	.section	.text$_ZNSt6vectorIS_IiSaIiEESaIS1_EEC1ERKS3_,"x"
	.linkonce discard
	.align 2
	.globl	_ZNSt6vectorIS_IiSaIiEESaIS1_EEC1ERKS3_
	.def	_ZNSt6vectorIS_IiSaIiEESaIS1_EEC1ERKS3_;	.scl	2;	.type	32;	.endef
	.seh_proc	_ZNSt6vectorIS_IiSaIiEESaIS1_EEC1ERKS3_
_ZNSt6vectorIS_IiSaIiEESaIS1_EEC1ERKS3_:
.LFB2445:
	pushq	%rbp
	.seh_pushreg	%rbp
	pushq	%rdi
	.seh_pushreg	%rdi
	pushq	%rsi
	.seh_pushreg	%rsi
	pushq	%rbx
	.seh_pushreg	%rbx
	subq	$56, %rsp
	.seh_stackalloc	56
	leaq	128(%rsp), %rbp
	.seh_setframe	%rbp, 128
	.seh_endprologue
	movq	%rcx, -32(%rbp)
	movq	%rdx, -24(%rbp)
	movq	-32(%rbp), %rbx
	movq	-24(%rbp), %rax
	movq	%rax, %rcx
	call	_ZNKSt12_Vector_baseISt6vectorIiSaIiEESaIS2_EE19_M_get_Tp_allocatorEv
	movq	%rax, %rdx
	leaq	-81(%rbp), %rax
	movq	%rax, %rcx
.LEHB17:
	call	_ZN9__gnu_cxx14__alloc_traitsISaISt6vectorIiSaIiEEEE17_S_select_on_copyERKS4_
.LEHE17:
	movq	-24(%rbp), %rax
	movq	%rax, %rcx
	call	_ZNKSt6vectorIS_IiSaIiEESaIS1_EE4sizeEv
	movq	%rax, %rdx
	leaq	-81(%rbp), %rax
	movq	%rax, %r8
	movq	%rbx, %rcx
.LEHB18:
	call	_ZNSt12_Vector_baseISt6vectorIiSaIiEESaIS2_EEC2EmRKS3_
.LEHE18:
	leaq	-81(%rbp), %rax
	movq	%rax, %rcx
	call	_ZNSaISt6vectorIiSaIiEEED1Ev
	movq	-32(%rbp), %rax
	movq	%rax, %rcx
	call	_ZNSt12_Vector_baseISt6vectorIiSaIiEESaIS2_EE19_M_get_Tp_allocatorEv
	movq	%rax, %rdi
	movq	-32(%rbp), %rax
	movq	(%rax), %rbx
	movq	-24(%rbp), %rax
	movq	%rax, %rcx
	call	_ZNKSt6vectorIS_IiSaIiEESaIS1_EE3endEv
	movq	%rax, %rsi
	movq	-24(%rbp), %rax
	movq	%rax, %rcx
	call	_ZNKSt6vectorIS_IiSaIiEESaIS1_EE5beginEv
	movq	%rdi, %r9
	movq	%rbx, %r8
	movq	%rsi, %rdx
	movq	%rax, %rcx
.LEHB19:
	call	_ZSt22__uninitialized_copy_aIN9__gnu_cxx17__normal_iteratorIPKSt6vectorIiSaIiEES2_IS4_SaIS4_EEEEPS4_S4_ET0_T_SC_SB_RSaIT1_E
.LEHE19:
	movq	%rax, %rdx
	movq	-32(%rbp), %rax
	movq	%rdx, 8(%rax)
	jmp	.L99
.L97:
	movq	%rax, %rbx
	leaq	-81(%rbp), %rax
	movq	%rax, %rcx
	call	_ZNSaISt6vectorIiSaIiEEED1Ev
	movq	%rbx, %rax
	movq	%rax, %rcx
.LEHB20:
	call	_Unwind_Resume
.L98:
	movq	%rax, %rbx
	movq	-32(%rbp), %rax
	movq	%rax, %rcx
	call	_ZNSt12_Vector_baseISt6vectorIiSaIiEESaIS2_EED2Ev
	movq	%rbx, %rax
	movq	%rax, %rcx
	call	_Unwind_Resume
	nop
.LEHE20:
.L99:
	addq	$56, %rsp
	popq	%rbx
	popq	%rsi
	popq	%rdi
	popq	%rbp
	ret
	.seh_handler	__gxx_personality_seh0, @unwind, @except
	.seh_handlerdata
.LLSDA2445:
	.byte	0xff
	.byte	0xff
	.byte	0x1
	.uleb128 .LLSDACSE2445-.LLSDACSB2445
.LLSDACSB2445:
	.uleb128 .LEHB17-.LFB2445
	.uleb128 .LEHE17-.LEHB17
	.uleb128 0
	.uleb128 0
	.uleb128 .LEHB18-.LFB2445
	.uleb128 .LEHE18-.LEHB18
	.uleb128 .L97-.LFB2445
	.uleb128 0
	.uleb128 .LEHB19-.LFB2445
	.uleb128 .LEHE19-.LEHB19
	.uleb128 .L98-.LFB2445
	.uleb128 0
	.uleb128 .LEHB20-.LFB2445
	.uleb128 .LEHE20-.LEHB20
	.uleb128 0
	.uleb128 0
.LLSDACSE2445:
	.section	.text$_ZNSt6vectorIS_IiSaIiEESaIS1_EEC1ERKS3_,"x"
	.linkonce discard
	.seh_endproc
	.section	.text$_ZNKSt4listIiSaIiEE4sizeEv,"x"
	.linkonce discard
	.align 2
	.globl	_ZNKSt4listIiSaIiEE4sizeEv
	.def	_ZNKSt4listIiSaIiEE4sizeEv;	.scl	2;	.type	32;	.endef
	.seh_proc	_ZNKSt4listIiSaIiEE4sizeEv
_ZNKSt4listIiSaIiEE4sizeEv:
.LFB2446:
	pushq	%rbp
	.seh_pushreg	%rbp
	movq	%rsp, %rbp
	.seh_setframe	%rbp, 0
	subq	$32, %rsp
	.seh_stackalloc	32
	.seh_endprologue
	movq	%rcx, 16(%rbp)
	movq	16(%rbp), %rax
	movq	%rax, %rcx
	call	_ZNKSt10_List_baseIiSaIiEE13_M_node_countEv
	addq	$32, %rsp
	popq	%rbp
	ret
	.seh_handler	__gxx_personality_seh0, @unwind, @except
	.seh_handlerdata
.LLSDA2446:
	.byte	0xff
	.byte	0xff
	.byte	0x1
	.uleb128 .LLSDACSE2446-.LLSDACSB2446
.LLSDACSB2446:
.LLSDACSE2446:
	.section	.text$_ZNKSt4listIiSaIiEE4sizeEv,"x"
	.linkonce discard
	.seh_endproc
	.section	.text$_ZNSt4listIiSaIiEE5clearEv,"x"
	.linkonce discard
	.align 2
	.globl	_ZNSt4listIiSaIiEE5clearEv
	.def	_ZNSt4listIiSaIiEE5clearEv;	.scl	2;	.type	32;	.endef
	.seh_proc	_ZNSt4listIiSaIiEE5clearEv
_ZNSt4listIiSaIiEE5clearEv:
.LFB2447:
	pushq	%rbp
	.seh_pushreg	%rbp
	movq	%rsp, %rbp
	.seh_setframe	%rbp, 0
	subq	$32, %rsp
	.seh_stackalloc	32
	.seh_endprologue
	movq	%rcx, 16(%rbp)
	movq	16(%rbp), %rax
	movq	%rax, %rcx
	call	_ZNSt10_List_baseIiSaIiEE8_M_clearEv
	movq	16(%rbp), %rax
	movq	%rax, %rcx
	call	_ZNSt10_List_baseIiSaIiEE7_M_initEv
	nop
	addq	$32, %rsp
	popq	%rbp
	ret
	.seh_endproc
	.section	.text$_ZNKSt4listIiSaIiEE5emptyEv,"x"
	.linkonce discard
	.align 2
	.globl	_ZNKSt4listIiSaIiEE5emptyEv
	.def	_ZNKSt4listIiSaIiEE5emptyEv;	.scl	2;	.type	32;	.endef
	.seh_proc	_ZNKSt4listIiSaIiEE5emptyEv
_ZNKSt4listIiSaIiEE5emptyEv:
.LFB2448:
	pushq	%rbp
	.seh_pushreg	%rbp
	movq	%rsp, %rbp
	.seh_setframe	%rbp, 0
	.seh_endprologue
	movq	%rcx, 16(%rbp)
	movq	16(%rbp), %rax
	movq	(%rax), %rdx
	movq	16(%rbp), %rax
	cmpq	%rax, %rdx
	sete	%al
	popq	%rbp
	ret
	.seh_endproc
	.section	.text$_ZNSt4listIiSaIiEE4backEv,"x"
	.linkonce discard
	.align 2
	.globl	_ZNSt4listIiSaIiEE4backEv
	.def	_ZNSt4listIiSaIiEE4backEv;	.scl	2;	.type	32;	.endef
	.seh_proc	_ZNSt4listIiSaIiEE4backEv
_ZNSt4listIiSaIiEE4backEv:
.LFB2449:
	pushq	%rbp
	.seh_pushreg	%rbp
	movq	%rsp, %rbp
	.seh_setframe	%rbp, 0
	subq	$48, %rsp
	.seh_stackalloc	48
	.seh_endprologue
	movq	%rcx, 16(%rbp)
	movq	16(%rbp), %rcx
	call	_ZNSt4listIiSaIiEE3endEv
	movq	%rax, -8(%rbp)
	leaq	-8(%rbp), %rax
	movq	%rax, %rcx
	call	_ZNSt14_List_iteratorIiEmmEv
	leaq	-8(%rbp), %rax
	movq	%rax, %rcx
	call	_ZNKSt14_List_iteratorIiEdeEv
	addq	$48, %rsp
	popq	%rbp
	ret
	.seh_endproc
	.section	.text$_ZNSt4listIiSaIiEE8pop_backEv,"x"
	.linkonce discard
	.align 2
	.globl	_ZNSt4listIiSaIiEE8pop_backEv
	.def	_ZNSt4listIiSaIiEE8pop_backEv;	.scl	2;	.type	32;	.endef
	.seh_proc	_ZNSt4listIiSaIiEE8pop_backEv
_ZNSt4listIiSaIiEE8pop_backEv:
.LFB2450:
	pushq	%rbp
	.seh_pushreg	%rbp
	movq	%rsp, %rbp
	.seh_setframe	%rbp, 0
	subq	$48, %rsp
	.seh_stackalloc	48
	.seh_endprologue
	movq	%rcx, 16(%rbp)
	movq	16(%rbp), %rax
	movq	8(%rax), %rdx
	leaq	-8(%rbp), %rax
	movq	%rax, %rcx
	call	_ZNSt14_List_iteratorIiEC1EPNSt8__detail15_List_node_baseE
	movq	-8(%rbp), %rax
	movq	%rax, %rdx
	movq	16(%rbp), %rcx
	call	_ZNSt4listIiSaIiEE8_M_eraseESt14_List_iteratorIiE
	nop
	addq	$48, %rsp
	popq	%rbp
	ret
	.seh_endproc
	.section	.text$_ZNSt12_Vector_baseISt6vectorIiSaIiEESaIS2_EE12_Vector_implD1Ev,"x"
	.linkonce discard
	.align 2
	.globl	_ZNSt12_Vector_baseISt6vectorIiSaIiEESaIS2_EE12_Vector_implD1Ev
	.def	_ZNSt12_Vector_baseISt6vectorIiSaIiEESaIS2_EE12_Vector_implD1Ev;	.scl	2;	.type	32;	.endef
	.seh_proc	_ZNSt12_Vector_baseISt6vectorIiSaIiEESaIS2_EE12_Vector_implD1Ev
_ZNSt12_Vector_baseISt6vectorIiSaIiEESaIS2_EE12_Vector_implD1Ev:
.LFB2540:
	pushq	%rbp
	.seh_pushreg	%rbp
	movq	%rsp, %rbp
	.seh_setframe	%rbp, 0
	subq	$32, %rsp
	.seh_stackalloc	32
	.seh_endprologue
	movq	%rcx, 16(%rbp)
	movq	16(%rbp), %rcx
	call	_ZNSaISt6vectorIiSaIiEEED2Ev
	nop
	addq	$32, %rsp
	popq	%rbp
	ret
	.seh_endproc
	.section	.text$_ZNSt12_Vector_baseISt6vectorIiSaIiEESaIS2_EEC2Ev,"x"
	.linkonce discard
	.align 2
	.globl	_ZNSt12_Vector_baseISt6vectorIiSaIiEESaIS2_EEC2Ev
	.def	_ZNSt12_Vector_baseISt6vectorIiSaIiEESaIS2_EEC2Ev;	.scl	2;	.type	32;	.endef
	.seh_proc	_ZNSt12_Vector_baseISt6vectorIiSaIiEESaIS2_EEC2Ev
_ZNSt12_Vector_baseISt6vectorIiSaIiEESaIS2_EEC2Ev:
.LFB2541:
	pushq	%rbp
	.seh_pushreg	%rbp
	movq	%rsp, %rbp
	.seh_setframe	%rbp, 0
	subq	$32, %rsp
	.seh_stackalloc	32
	.seh_endprologue
	movq	%rcx, 16(%rbp)
	movq	16(%rbp), %rax
	movq	%rax, %rcx
	call	_ZNSt12_Vector_baseISt6vectorIiSaIiEESaIS2_EE12_Vector_implC1Ev
	nop
	addq	$32, %rsp
	popq	%rbp
	ret
	.seh_endproc
	.section	.text$_ZNSt12_Vector_baseISt6vectorIiSaIiEESaIS2_EED2Ev,"x"
	.linkonce discard
	.align 2
	.globl	_ZNSt12_Vector_baseISt6vectorIiSaIiEESaIS2_EED2Ev
	.def	_ZNSt12_Vector_baseISt6vectorIiSaIiEESaIS2_EED2Ev;	.scl	2;	.type	32;	.endef
	.seh_proc	_ZNSt12_Vector_baseISt6vectorIiSaIiEESaIS2_EED2Ev
_ZNSt12_Vector_baseISt6vectorIiSaIiEESaIS2_EED2Ev:
.LFB2544:
	pushq	%rbp
	.seh_pushreg	%rbp
	movq	%rsp, %rbp
	.seh_setframe	%rbp, 0
	subq	$32, %rsp
	.seh_stackalloc	32
	.seh_endprologue
	movq	%rcx, 16(%rbp)
	movq	16(%rbp), %rax
	movq	16(%rax), %rax
	movq	%rax, %rdx
	movq	16(%rbp), %rax
	movq	(%rax), %rax
	subq	%rax, %rdx
	movq	%rdx, %rax
	sarq	$3, %rax
	movq	%rax, %rdx
	movabsq	$-6148914691236517205, %rax
	imulq	%rdx, %rax
	movq	%rax, %rdx
	movq	16(%rbp), %rax
	movq	(%rax), %rax
	movq	%rdx, %r8
	movq	%rax, %rdx
	movq	16(%rbp), %rcx
	call	_ZNSt12_Vector_baseISt6vectorIiSaIiEESaIS2_EE13_M_deallocateEPS2_m
	movq	16(%rbp), %rax
	movq	%rax, %rcx
	call	_ZNSt12_Vector_baseISt6vectorIiSaIiEESaIS2_EE12_Vector_implD1Ev
	nop
	addq	$32, %rsp
	popq	%rbp
	ret
	.seh_handler	__gxx_personality_seh0, @unwind, @except
	.seh_handlerdata
.LLSDA2544:
	.byte	0xff
	.byte	0xff
	.byte	0x1
	.uleb128 .LLSDACSE2544-.LLSDACSB2544
.LLSDACSB2544:
.LLSDACSE2544:
	.section	.text$_ZNSt12_Vector_baseISt6vectorIiSaIiEESaIS2_EED2Ev,"x"
	.linkonce discard
	.seh_endproc
	.section	.text$_ZNSt12_Vector_baseISt6vectorIiSaIiEESaIS2_EE19_M_get_Tp_allocatorEv,"x"
	.linkonce discard
	.align 2
	.globl	_ZNSt12_Vector_baseISt6vectorIiSaIiEESaIS2_EE19_M_get_Tp_allocatorEv
	.def	_ZNSt12_Vector_baseISt6vectorIiSaIiEESaIS2_EE19_M_get_Tp_allocatorEv;	.scl	2;	.type	32;	.endef
	.seh_proc	_ZNSt12_Vector_baseISt6vectorIiSaIiEESaIS2_EE19_M_get_Tp_allocatorEv
_ZNSt12_Vector_baseISt6vectorIiSaIiEESaIS2_EE19_M_get_Tp_allocatorEv:
.LFB2546:
	pushq	%rbp
	.seh_pushreg	%rbp
	movq	%rsp, %rbp
	.seh_setframe	%rbp, 0
	.seh_endprologue
	movq	%rcx, 16(%rbp)
	movq	16(%rbp), %rax
	popq	%rbp
	ret
	.seh_endproc
	.section	.text$_ZSt8_DestroyIPSt6vectorIiSaIiEES2_EvT_S4_RSaIT0_E,"x"
	.linkonce discard
	.globl	_ZSt8_DestroyIPSt6vectorIiSaIiEES2_EvT_S4_RSaIT0_E
	.def	_ZSt8_DestroyIPSt6vectorIiSaIiEES2_EvT_S4_RSaIT0_E;	.scl	2;	.type	32;	.endef
	.seh_proc	_ZSt8_DestroyIPSt6vectorIiSaIiEES2_EvT_S4_RSaIT0_E
_ZSt8_DestroyIPSt6vectorIiSaIiEES2_EvT_S4_RSaIT0_E:
.LFB2547:
	pushq	%rbp
	.seh_pushreg	%rbp
	movq	%rsp, %rbp
	.seh_setframe	%rbp, 0
	subq	$32, %rsp
	.seh_stackalloc	32
	.seh_endprologue
	movq	%rcx, 16(%rbp)
	movq	%rdx, 24(%rbp)
	movq	%r8, 32(%rbp)
	movq	24(%rbp), %rax
	movq	%rax, %rdx
	movq	16(%rbp), %rcx
	call	_ZSt8_DestroyIPSt6vectorIiSaIiEEEvT_S4_
	nop
	addq	$32, %rsp
	popq	%rbp
	ret
	.seh_endproc
	.section	.text$_ZNSt12_Vector_baseIiSaIiEE12_Vector_implD1Ev,"x"
	.linkonce discard
	.align 2
	.globl	_ZNSt12_Vector_baseIiSaIiEE12_Vector_implD1Ev
	.def	_ZNSt12_Vector_baseIiSaIiEE12_Vector_implD1Ev;	.scl	2;	.type	32;	.endef
	.seh_proc	_ZNSt12_Vector_baseIiSaIiEE12_Vector_implD1Ev
_ZNSt12_Vector_baseIiSaIiEE12_Vector_implD1Ev:
.LFB2551:
	pushq	%rbp
	.seh_pushreg	%rbp
	movq	%rsp, %rbp
	.seh_setframe	%rbp, 0
	subq	$32, %rsp
	.seh_stackalloc	32
	.seh_endprologue
	movq	%rcx, 16(%rbp)
	movq	16(%rbp), %rcx
	call	_ZNSaIiED2Ev
	nop
	addq	$32, %rsp
	popq	%rbp
	ret
	.seh_endproc
	.section	.text$_ZNSt12_Vector_baseIiSaIiEEC2Ev,"x"
	.linkonce discard
	.align 2
	.globl	_ZNSt12_Vector_baseIiSaIiEEC2Ev
	.def	_ZNSt12_Vector_baseIiSaIiEEC2Ev;	.scl	2;	.type	32;	.endef
	.seh_proc	_ZNSt12_Vector_baseIiSaIiEEC2Ev
_ZNSt12_Vector_baseIiSaIiEEC2Ev:
.LFB2552:
	pushq	%rbp
	.seh_pushreg	%rbp
	movq	%rsp, %rbp
	.seh_setframe	%rbp, 0
	subq	$32, %rsp
	.seh_stackalloc	32
	.seh_endprologue
	movq	%rcx, 16(%rbp)
	movq	16(%rbp), %rax
	movq	%rax, %rcx
	call	_ZNSt12_Vector_baseIiSaIiEE12_Vector_implC1Ev
	nop
	addq	$32, %rsp
	popq	%rbp
	ret
	.seh_endproc
	.section	.text$_ZNSt12_Vector_baseIiSaIiEED2Ev,"x"
	.linkonce discard
	.align 2
	.globl	_ZNSt12_Vector_baseIiSaIiEED2Ev
	.def	_ZNSt12_Vector_baseIiSaIiEED2Ev;	.scl	2;	.type	32;	.endef
	.seh_proc	_ZNSt12_Vector_baseIiSaIiEED2Ev
_ZNSt12_Vector_baseIiSaIiEED2Ev:
.LFB2555:
	pushq	%rbp
	.seh_pushreg	%rbp
	movq	%rsp, %rbp
	.seh_setframe	%rbp, 0
	subq	$32, %rsp
	.seh_stackalloc	32
	.seh_endprologue
	movq	%rcx, 16(%rbp)
	movq	16(%rbp), %rax
	movq	16(%rax), %rax
	movq	%rax, %rdx
	movq	16(%rbp), %rax
	movq	(%rax), %rax
	subq	%rax, %rdx
	movq	%rdx, %rax
	sarq	$2, %rax
	movq	%rax, %rdx
	movq	16(%rbp), %rax
	movq	(%rax), %rax
	movq	%rdx, %r8
	movq	%rax, %rdx
	movq	16(%rbp), %rcx
	call	_ZNSt12_Vector_baseIiSaIiEE13_M_deallocateEPim
	movq	16(%rbp), %rax
	movq	%rax, %rcx
	call	_ZNSt12_Vector_baseIiSaIiEE12_Vector_implD1Ev
	nop
	addq	$32, %rsp
	popq	%rbp
	ret
	.seh_handler	__gxx_personality_seh0, @unwind, @except
	.seh_handlerdata
.LLSDA2555:
	.byte	0xff
	.byte	0xff
	.byte	0x1
	.uleb128 .LLSDACSE2555-.LLSDACSB2555
.LLSDACSB2555:
.LLSDACSE2555:
	.section	.text$_ZNSt12_Vector_baseIiSaIiEED2Ev,"x"
	.linkonce discard
	.seh_endproc
	.section	.text$_ZNSt12_Vector_baseIiSaIiEE19_M_get_Tp_allocatorEv,"x"
	.linkonce discard
	.align 2
	.globl	_ZNSt12_Vector_baseIiSaIiEE19_M_get_Tp_allocatorEv
	.def	_ZNSt12_Vector_baseIiSaIiEE19_M_get_Tp_allocatorEv;	.scl	2;	.type	32;	.endef
	.seh_proc	_ZNSt12_Vector_baseIiSaIiEE19_M_get_Tp_allocatorEv
_ZNSt12_Vector_baseIiSaIiEE19_M_get_Tp_allocatorEv:
.LFB2557:
	pushq	%rbp
	.seh_pushreg	%rbp
	movq	%rsp, %rbp
	.seh_setframe	%rbp, 0
	.seh_endprologue
	movq	%rcx, 16(%rbp)
	movq	16(%rbp), %rax
	popq	%rbp
	ret
	.seh_endproc
	.section	.text$_ZSt8_DestroyIPiiEvT_S1_RSaIT0_E,"x"
	.linkonce discard
	.globl	_ZSt8_DestroyIPiiEvT_S1_RSaIT0_E
	.def	_ZSt8_DestroyIPiiEvT_S1_RSaIT0_E;	.scl	2;	.type	32;	.endef
	.seh_proc	_ZSt8_DestroyIPiiEvT_S1_RSaIT0_E
_ZSt8_DestroyIPiiEvT_S1_RSaIT0_E:
.LFB2558:
	pushq	%rbp
	.seh_pushreg	%rbp
	movq	%rsp, %rbp
	.seh_setframe	%rbp, 0
	subq	$32, %rsp
	.seh_stackalloc	32
	.seh_endprologue
	movq	%rcx, 16(%rbp)
	movq	%rdx, 24(%rbp)
	movq	%r8, 32(%rbp)
	movq	24(%rbp), %rax
	movq	%rax, %rdx
	movq	16(%rbp), %rcx
	call	_ZSt8_DestroyIPiEvT_S1_
	nop
	addq	$32, %rsp
	popq	%rbp
	ret
	.seh_endproc
	.section	.text$_ZN9__gnu_cxx13new_allocatorIiEC2Ev,"x"
	.linkonce discard
	.align 2
	.globl	_ZN9__gnu_cxx13new_allocatorIiEC2Ev
	.def	_ZN9__gnu_cxx13new_allocatorIiEC2Ev;	.scl	2;	.type	32;	.endef
	.seh_proc	_ZN9__gnu_cxx13new_allocatorIiEC2Ev
_ZN9__gnu_cxx13new_allocatorIiEC2Ev:
.LFB2580:
	pushq	%rbp
	.seh_pushreg	%rbp
	movq	%rsp, %rbp
	.seh_setframe	%rbp, 0
	.seh_endprologue
	movq	%rcx, 16(%rbp)
	nop
	popq	%rbp
	ret
	.seh_endproc
	.section	.text$_ZN9__gnu_cxx13new_allocatorIiED2Ev,"x"
	.linkonce discard
	.align 2
	.globl	_ZN9__gnu_cxx13new_allocatorIiED2Ev
	.def	_ZN9__gnu_cxx13new_allocatorIiED2Ev;	.scl	2;	.type	32;	.endef
	.seh_proc	_ZN9__gnu_cxx13new_allocatorIiED2Ev
_ZN9__gnu_cxx13new_allocatorIiED2Ev:
.LFB2583:
	pushq	%rbp
	.seh_pushreg	%rbp
	movq	%rsp, %rbp
	.seh_setframe	%rbp, 0
	.seh_endprologue
	movq	%rcx, 16(%rbp)
	nop
	popq	%rbp
	ret
	.seh_endproc
	.section	.text$_ZNSt12_Vector_baseIiSaIiEEC2EmRKS0_,"x"
	.linkonce discard
	.align 2
	.globl	_ZNSt12_Vector_baseIiSaIiEEC2EmRKS0_
	.def	_ZNSt12_Vector_baseIiSaIiEEC2EmRKS0_;	.scl	2;	.type	32;	.endef
	.seh_proc	_ZNSt12_Vector_baseIiSaIiEEC2EmRKS0_
_ZNSt12_Vector_baseIiSaIiEEC2EmRKS0_:
.LFB2586:
	pushq	%rbp
	.seh_pushreg	%rbp
	pushq	%rbx
	.seh_pushreg	%rbx
	subq	$40, %rsp
	.seh_stackalloc	40
	leaq	128(%rsp), %rbp
	.seh_setframe	%rbp, 128
	.seh_endprologue
	movq	%rcx, -64(%rbp)
	movq	%rdx, -56(%rbp)
	movq	%r8, -48(%rbp)
	movq	-64(%rbp), %rax
	movq	-48(%rbp), %rdx
	movq	%rax, %rcx
	call	_ZNSt12_Vector_baseIiSaIiEE12_Vector_implC1ERKS0_
	movq	-56(%rbp), %rax
	movq	%rax, %rdx
	movq	-64(%rbp), %rcx
.LEHB21:
	call	_ZNSt12_Vector_baseIiSaIiEE17_M_create_storageEm
.LEHE21:
	jmp	.L125
.L124:
	movq	%rax, %rbx
	movq	-64(%rbp), %rax
	movq	%rax, %rcx
	call	_ZNSt12_Vector_baseIiSaIiEE12_Vector_implD1Ev
	movq	%rbx, %rax
	movq	%rax, %rcx
.LEHB22:
	call	_Unwind_Resume
	nop
.LEHE22:
.L125:
	addq	$40, %rsp
	popq	%rbx
	popq	%rbp
	ret
	.seh_handler	__gxx_personality_seh0, @unwind, @except
	.seh_handlerdata
.LLSDA2586:
	.byte	0xff
	.byte	0xff
	.byte	0x1
	.uleb128 .LLSDACSE2586-.LLSDACSB2586
.LLSDACSB2586:
	.uleb128 .LEHB21-.LFB2586
	.uleb128 .LEHE21-.LEHB21
	.uleb128 .L124-.LFB2586
	.uleb128 0
	.uleb128 .LEHB22-.LFB2586
	.uleb128 .LEHE22-.LEHB22
	.uleb128 0
	.uleb128 0
.LLSDACSE2586:
	.section	.text$_ZNSt12_Vector_baseIiSaIiEEC2EmRKS0_,"x"
	.linkonce discard
	.seh_endproc
	.section	.text$_ZNSt6vectorIiSaIiEE18_M_fill_initializeEmRKi,"x"
	.linkonce discard
	.align 2
	.globl	_ZNSt6vectorIiSaIiEE18_M_fill_initializeEmRKi
	.def	_ZNSt6vectorIiSaIiEE18_M_fill_initializeEmRKi;	.scl	2;	.type	32;	.endef
	.seh_proc	_ZNSt6vectorIiSaIiEE18_M_fill_initializeEmRKi
_ZNSt6vectorIiSaIiEE18_M_fill_initializeEmRKi:
.LFB2588:
	pushq	%rbp
	.seh_pushreg	%rbp
	movq	%rsp, %rbp
	.seh_setframe	%rbp, 0
	subq	$32, %rsp
	.seh_stackalloc	32
	.seh_endprologue
	movq	%rcx, 16(%rbp)
	movq	%rdx, 24(%rbp)
	movq	%r8, 32(%rbp)
	movq	16(%rbp), %rax
	movq	%rax, %rcx
	call	_ZNSt12_Vector_baseIiSaIiEE19_M_get_Tp_allocatorEv
	movq	%rax, %r8
	movq	16(%rbp), %rax
	movq	(%rax), %rax
	movq	32(%rbp), %rcx
	movq	24(%rbp), %rdx
	movq	%r8, %r9
	movq	%rcx, %r8
	movq	%rax, %rcx
	call	_ZSt24__uninitialized_fill_n_aIPimiiET_S1_T0_RKT1_RSaIT2_E
	movq	%rax, %rdx
	movq	16(%rbp), %rax
	movq	%rdx, 8(%rax)
	nop
	addq	$32, %rsp
	popq	%rbp
	ret
	.seh_endproc
	.section .rdata,"dr"
.LC4:
	.ascii "vector::_M_fill_insert\0"
	.section	.text$_ZNSt6vectorIS_IiSaIiEESaIS1_EE14_M_fill_insertEN9__gnu_cxx17__normal_iteratorIPS1_S3_EEmRKS1_,"x"
	.linkonce discard
	.align 2
	.globl	_ZNSt6vectorIS_IiSaIiEESaIS1_EE14_M_fill_insertEN9__gnu_cxx17__normal_iteratorIPS1_S3_EEmRKS1_
	.def	_ZNSt6vectorIS_IiSaIiEESaIS1_EE14_M_fill_insertEN9__gnu_cxx17__normal_iteratorIPS1_S3_EEmRKS1_;	.scl	2;	.type	32;	.endef
	.seh_proc	_ZNSt6vectorIS_IiSaIiEESaIS1_EE14_M_fill_insertEN9__gnu_cxx17__normal_iteratorIPS1_S3_EEmRKS1_
_ZNSt6vectorIS_IiSaIiEESaIS1_EE14_M_fill_insertEN9__gnu_cxx17__normal_iteratorIPS1_S3_EEmRKS1_:
.LFB2589:
	pushq	%rbp
	.seh_pushreg	%rbp
	pushq	%rsi
	.seh_pushreg	%rsi
	pushq	%rbx
	.seh_pushreg	%rbx
	movq	%rsp, %rbp
	.seh_setframe	%rbp, 0
	subq	$144, %rsp
	.seh_stackalloc	144
	.seh_endprologue
	movq	%rcx, 32(%rbp)
	movq	%rdx, 40(%rbp)
	movq	%r8, 48(%rbp)
	movq	%r9, 56(%rbp)
	cmpq	$0, 48(%rbp)
	je	.L141
	movq	32(%rbp), %rax
	movq	16(%rax), %rax
	movq	%rax, %rdx
	movq	32(%rbp), %rax
	movq	8(%rax), %rax
	subq	%rax, %rdx
	movq	%rdx, %rax
	sarq	$3, %rax
	movq	%rax, %rdx
	movabsq	$-6148914691236517205, %rax
	imulq	%rdx, %rax
	cmpq	%rax, 48(%rbp)
	ja	.L129
	movq	56(%rbp), %rdx
	leaq	-112(%rbp), %rax
	movq	%rdx, %r8
	movq	32(%rbp), %rdx
	movq	%rax, %rcx
.LEHB23:
	call	_ZNSt6vectorIS_IiSaIiEESaIS1_EE16_Temporary_valueC1IJRKS1_EEEPS3_DpOT_
.LEHE23:
	leaq	-112(%rbp), %rax
	movq	%rax, %rcx
	call	_ZNSt6vectorIS_IiSaIiEESaIS1_EE16_Temporary_value6_M_valEv
	movq	%rax, -40(%rbp)
	movq	32(%rbp), %rcx
	call	_ZNSt6vectorIS_IiSaIiEESaIS1_EE3endEv
	movq	%rax, -72(%rbp)
	leaq	40(%rbp), %rdx
	leaq	-72(%rbp), %rax
	movq	%rax, %rcx
	call	_ZN9__gnu_cxxmiIPSt6vectorIiSaIiEES1_IS3_SaIS3_EEEENS_17__normal_iteratorIT_T0_E15difference_typeERKSA_SD_
	movq	%rax, -48(%rbp)
	movq	32(%rbp), %rax
	movq	8(%rax), %rax
	movq	%rax, -56(%rbp)
	movq	-48(%rbp), %rax
	cmpq	48(%rbp), %rax
	jbe	.L130
	movq	32(%rbp), %rax
	movq	%rax, %rcx
	call	_ZNSt12_Vector_baseISt6vectorIiSaIiEESaIS2_EE19_M_get_Tp_allocatorEv
	movq	%rax, %r10
	movq	32(%rbp), %rax
	movq	8(%rax), %r8
	movq	32(%rbp), %rax
	movq	8(%rax), %rcx
	movq	32(%rbp), %rax
	movq	8(%rax), %r9
	movq	48(%rbp), %rdx
	movq	%rdx, %rax
	addq	%rax, %rax
	addq	%rdx, %rax
	salq	$3, %rax
	negq	%rax
	addq	%r9, %rax
	movq	%r10, %r9
	movq	%rcx, %rdx
	movq	%rax, %rcx
.LEHB24:
	call	_ZSt22__uninitialized_move_aIPSt6vectorIiSaIiEES3_SaIS2_EET0_T_S6_S5_RT1_
	movq	32(%rbp), %rax
	movq	8(%rax), %rcx
	movq	48(%rbp), %rdx
	movq	%rdx, %rax
	addq	%rax, %rax
	addq	%rdx, %rax
	salq	$3, %rax
	leaq	(%rcx,%rax), %rdx
	movq	32(%rbp), %rax
	movq	%rdx, 8(%rax)
	movq	48(%rbp), %rdx
	movq	%rdx, %rax
	addq	%rax, %rax
	addq	%rdx, %rax
	salq	$3, %rax
	negq	%rax
	movq	%rax, %rdx
	movq	-56(%rbp), %rax
	leaq	(%rdx,%rax), %rbx
	leaq	40(%rbp), %rax
	movq	%rax, %rcx
	call	_ZNK9__gnu_cxx17__normal_iteratorIPSt6vectorIiSaIiEES1_IS3_SaIS3_EEE4baseEv
	movq	(%rax), %rax
	movq	-56(%rbp), %rdx
	movq	%rdx, %r8
	movq	%rbx, %rdx
	movq	%rax, %rcx
	call	_ZSt13move_backwardIPSt6vectorIiSaIiEES3_ET0_T_S5_S4_
	leaq	40(%rbp), %rax
	movq	%rax, %rcx
	call	_ZNK9__gnu_cxx17__normal_iteratorIPSt6vectorIiSaIiEES1_IS3_SaIS3_EEE4baseEv
	movq	(%rax), %rcx
	movq	48(%rbp), %rdx
	movq	%rdx, %rax
	addq	%rax, %rax
	addq	%rdx, %rax
	salq	$3, %rax
	leaq	(%rcx,%rax), %rbx
	leaq	40(%rbp), %rax
	movq	%rax, %rcx
	call	_ZNK9__gnu_cxx17__normal_iteratorIPSt6vectorIiSaIiEES1_IS3_SaIS3_EEE4baseEv
	movq	(%rax), %rax
	movq	-40(%rbp), %rdx
	movq	%rdx, %r8
	movq	%rbx, %rdx
	movq	%rax, %rcx
	call	_ZSt4fillIPSt6vectorIiSaIiEES2_EvT_S4_RKT0_
	jmp	.L131
.L130:
	movq	32(%rbp), %rax
	movq	%rax, %rcx
	call	_ZNSt12_Vector_baseISt6vectorIiSaIiEESaIS2_EE19_M_get_Tp_allocatorEv
	movq	%rax, %r8
	movq	48(%rbp), %rax
	subq	-48(%rbp), %rax
	movq	%rax, %rdx
	movq	32(%rbp), %rax
	movq	8(%rax), %rax
	movq	-40(%rbp), %rcx
	movq	%r8, %r9
	movq	%rcx, %r8
	movq	%rax, %rcx
	call	_ZSt24__uninitialized_fill_n_aIPSt6vectorIiSaIiEEmS2_S2_ET_S4_T0_RKT1_RSaIT2_E
	movq	%rax, %rdx
	movq	32(%rbp), %rax
	movq	%rdx, 8(%rax)
	movq	32(%rbp), %rax
	movq	%rax, %rcx
	call	_ZNSt12_Vector_baseISt6vectorIiSaIiEESaIS2_EE19_M_get_Tp_allocatorEv
	movq	%rax, %rsi
	movq	32(%rbp), %rax
	movq	8(%rax), %rbx
	leaq	40(%rbp), %rax
	movq	%rax, %rcx
	call	_ZNK9__gnu_cxx17__normal_iteratorIPSt6vectorIiSaIiEES1_IS3_SaIS3_EEE4baseEv
	movq	(%rax), %rax
	movq	-56(%rbp), %rdx
	movq	%rsi, %r9
	movq	%rbx, %r8
	movq	%rax, %rcx
	call	_ZSt22__uninitialized_move_aIPSt6vectorIiSaIiEES3_SaIS2_EET0_T_S6_S5_RT1_
	movq	32(%rbp), %rax
	movq	8(%rax), %rcx
	movq	-48(%rbp), %rdx
	movq	%rdx, %rax
	addq	%rax, %rax
	addq	%rdx, %rax
	salq	$3, %rax
	leaq	(%rcx,%rax), %rdx
	movq	32(%rbp), %rax
	movq	%rdx, 8(%rax)
	leaq	40(%rbp), %rax
	movq	%rax, %rcx
	call	_ZNK9__gnu_cxx17__normal_iteratorIPSt6vectorIiSaIiEES1_IS3_SaIS3_EEE4baseEv
	movq	(%rax), %rax
	movq	-40(%rbp), %rcx
	movq	-56(%rbp), %rdx
	movq	%rcx, %r8
	movq	%rax, %rcx
	call	_ZSt4fillIPSt6vectorIiSaIiEES2_EvT_S4_RKT0_
.LEHE24:
.L131:
	leaq	-112(%rbp), %rax
	movq	%rax, %rcx
	call	_ZNSt6vectorIS_IiSaIiEESaIS1_EE16_Temporary_valueD1Ev
	jmp	.L141
.L129:
	movq	48(%rbp), %rax
	leaq	.LC4(%rip), %r8
	movq	%rax, %rdx
	movq	32(%rbp), %rcx
.LEHB25:
	call	_ZNKSt6vectorIS_IiSaIiEESaIS1_EE12_M_check_lenEmPKc
	movq	%rax, -16(%rbp)
	movq	32(%rbp), %rcx
	call	_ZNSt6vectorIS_IiSaIiEESaIS1_EE5beginEv
	movq	%rax, -64(%rbp)
	leaq	-64(%rbp), %rdx
	leaq	40(%rbp), %rax
	movq	%rax, %rcx
	call	_ZN9__gnu_cxxmiIPSt6vectorIiSaIiEES1_IS3_SaIS3_EEEENS_17__normal_iteratorIT_T0_E15difference_typeERKSA_SD_
	movq	%rax, -24(%rbp)
	movq	32(%rbp), %rax
	movq	-16(%rbp), %rdx
	movq	%rax, %rcx
	call	_ZNSt12_Vector_baseISt6vectorIiSaIiEESaIS2_EE11_M_allocateEm
.LEHE25:
	movq	%rax, -32(%rbp)
	movq	-32(%rbp), %rax
	movq	%rax, -8(%rbp)
	movq	32(%rbp), %rax
	movq	%rax, %rcx
	call	_ZNSt12_Vector_baseISt6vectorIiSaIiEESaIS2_EE19_M_get_Tp_allocatorEv
	movq	%rax, %r8
	movq	-24(%rbp), %rdx
	movq	%rdx, %rax
	addq	%rax, %rax
	addq	%rdx, %rax
	salq	$3, %rax
	movq	%rax, %rdx
	movq	-32(%rbp), %rax
	leaq	(%rdx,%rax), %rcx
	movq	56(%rbp), %rdx
	movq	48(%rbp), %rax
	movq	%r8, %r9
	movq	%rdx, %r8
	movq	%rax, %rdx
.LEHB26:
	call	_ZSt24__uninitialized_fill_n_aIPSt6vectorIiSaIiEEmS2_S2_ET_S4_T0_RKT1_RSaIT2_E
	movq	$0, -8(%rbp)
	movq	32(%rbp), %rax
	movq	%rax, %rcx
	call	_ZNSt12_Vector_baseISt6vectorIiSaIiEESaIS2_EE19_M_get_Tp_allocatorEv
	movq	%rax, %rbx
	leaq	40(%rbp), %rax
	movq	%rax, %rcx
	call	_ZNK9__gnu_cxx17__normal_iteratorIPSt6vectorIiSaIiEES1_IS3_SaIS3_EEE4baseEv
	movq	(%rax), %rdx
	movq	32(%rbp), %rax
	movq	(%rax), %rax
	movq	-32(%rbp), %rcx
	movq	%rbx, %r9
	movq	%rcx, %r8
	movq	%rax, %rcx
	call	_ZSt34__uninitialized_move_if_noexcept_aIPSt6vectorIiSaIiEES3_SaIS2_EET0_T_S6_S5_RT1_
	movq	%rax, -8(%rbp)
	movq	48(%rbp), %rdx
	movq	%rdx, %rax
	addq	%rax, %rax
	addq	%rdx, %rax
	salq	$3, %rax
	addq	%rax, -8(%rbp)
	movq	32(%rbp), %rax
	movq	%rax, %rcx
	call	_ZNSt12_Vector_baseISt6vectorIiSaIiEESaIS2_EE19_M_get_Tp_allocatorEv
	movq	%rax, %rsi
	movq	32(%rbp), %rax
	movq	8(%rax), %rbx
	leaq	40(%rbp), %rax
	movq	%rax, %rcx
	call	_ZNK9__gnu_cxx17__normal_iteratorIPSt6vectorIiSaIiEES1_IS3_SaIS3_EEE4baseEv
	movq	(%rax), %rax
	movq	-8(%rbp), %rdx
	movq	%rsi, %r9
	movq	%rdx, %r8
	movq	%rbx, %rdx
	movq	%rax, %rcx
	call	_ZSt34__uninitialized_move_if_noexcept_aIPSt6vectorIiSaIiEES3_SaIS2_EET0_T_S6_S5_RT1_
.LEHE26:
	movq	%rax, -8(%rbp)
	movq	32(%rbp), %rax
	movq	%rax, %rcx
	call	_ZNSt12_Vector_baseISt6vectorIiSaIiEESaIS2_EE19_M_get_Tp_allocatorEv
	movq	%rax, %rcx
	movq	32(%rbp), %rax
	movq	8(%rax), %rdx
	movq	32(%rbp), %rax
	movq	(%rax), %rax
	movq	%rcx, %r8
	movq	%rax, %rcx
.LEHB27:
	call	_ZSt8_DestroyIPSt6vectorIiSaIiEES2_EvT_S4_RSaIT0_E
	movq	32(%rbp), %rax
	movq	32(%rbp), %rdx
	movq	16(%rdx), %rdx
	movq	%rdx, %rcx
	movq	32(%rbp), %rdx
	movq	(%rdx), %rdx
	subq	%rdx, %rcx
	movq	%rcx, %rdx
	movq	%rdx, %rcx
	sarq	$3, %rcx
	movabsq	$-6148914691236517205, %rdx
	imulq	%rcx, %rdx
	movq	%rdx, %rcx
	movq	32(%rbp), %rdx
	movq	(%rdx), %rdx
	movq	%rcx, %r8
	movq	%rax, %rcx
	call	_ZNSt12_Vector_baseISt6vectorIiSaIiEESaIS2_EE13_M_deallocateEPS2_m
	movq	32(%rbp), %rax
	movq	-32(%rbp), %rdx
	movq	%rdx, (%rax)
	movq	32(%rbp), %rax
	movq	-8(%rbp), %rdx
	movq	%rdx, 8(%rax)
	movq	-16(%rbp), %rdx
	movq	%rdx, %rax
	addq	%rax, %rax
	addq	%rdx, %rax
	salq	$3, %rax
	movq	%rax, %rdx
	movq	-32(%rbp), %rax
	addq	%rax, %rdx
	movq	32(%rbp), %rax
	movq	%rdx, 16(%rax)
	jmp	.L141
.L138:
	movq	%rax, %rbx
	leaq	-112(%rbp), %rax
	movq	%rax, %rcx
	call	_ZNSt6vectorIS_IiSaIiEESaIS1_EE16_Temporary_valueD1Ev
	movq	%rbx, %rax
	movq	%rax, %rcx
	call	_Unwind_Resume
.LEHE27:
.L139:
	movq	%rax, %rcx
	call	__cxa_begin_catch
	cmpq	$0, -8(%rbp)
	jne	.L135
	movq	32(%rbp), %rax
	movq	%rax, %rcx
	call	_ZNSt12_Vector_baseISt6vectorIiSaIiEESaIS2_EE19_M_get_Tp_allocatorEv
	movq	%rax, %r8
	movq	-24(%rbp), %rdx
	movq	48(%rbp), %rax
	addq	%rax, %rdx
	movq	%rdx, %rax
	addq	%rax, %rax
	addq	%rdx, %rax
	salq	$3, %rax
	movq	%rax, %rdx
	movq	-32(%rbp), %rax
	leaq	(%rdx,%rax), %rcx
	movq	-24(%rbp), %rdx
	movq	%rdx, %rax
	addq	%rax, %rax
	addq	%rdx, %rax
	salq	$3, %rax
	movq	%rax, %rdx
	movq	-32(%rbp), %rax
	addq	%rdx, %rax
	movq	%rcx, %rdx
	movq	%rax, %rcx
.LEHB28:
	call	_ZSt8_DestroyIPSt6vectorIiSaIiEES2_EvT_S4_RSaIT0_E
	jmp	.L136
.L135:
	movq	32(%rbp), %rax
	movq	%rax, %rcx
	call	_ZNSt12_Vector_baseISt6vectorIiSaIiEESaIS2_EE19_M_get_Tp_allocatorEv
	movq	%rax, %rcx
	movq	-8(%rbp), %rdx
	movq	-32(%rbp), %rax
	movq	%rcx, %r8
	movq	%rax, %rcx
	call	_ZSt8_DestroyIPSt6vectorIiSaIiEES2_EvT_S4_RSaIT0_E
.L136:
	movq	32(%rbp), %rax
	movq	-16(%rbp), %rcx
	movq	-32(%rbp), %rdx
	movq	%rcx, %r8
	movq	%rax, %rcx
	call	_ZNSt12_Vector_baseISt6vectorIiSaIiEESaIS2_EE13_M_deallocateEPS2_m
	call	__cxa_rethrow
.LEHE28:
.L140:
	movq	%rax, %rbx
	call	__cxa_end_catch
	movq	%rbx, %rax
	movq	%rax, %rcx
.LEHB29:
	call	_Unwind_Resume
.LEHE29:
.L141:
	nop
	addq	$144, %rsp
	popq	%rbx
	popq	%rsi
	popq	%rbp
	ret
	.seh_handler	__gxx_personality_seh0, @unwind, @except
	.seh_handlerdata
	.align 4
.LLSDA2589:
	.byte	0xff
	.byte	0x9b
	.uleb128 .LLSDATT2589-.LLSDATTD2589
.LLSDATTD2589:
	.byte	0x1
	.uleb128 .LLSDACSE2589-.LLSDACSB2589
.LLSDACSB2589:
	.uleb128 .LEHB23-.LFB2589
	.uleb128 .LEHE23-.LEHB23
	.uleb128 0
	.uleb128 0
	.uleb128 .LEHB24-.LFB2589
	.uleb128 .LEHE24-.LEHB24
	.uleb128 .L138-.LFB2589
	.uleb128 0
	.uleb128 .LEHB25-.LFB2589
	.uleb128 .LEHE25-.LEHB25
	.uleb128 0
	.uleb128 0
	.uleb128 .LEHB26-.LFB2589
	.uleb128 .LEHE26-.LEHB26
	.uleb128 .L139-.LFB2589
	.uleb128 0x1
	.uleb128 .LEHB27-.LFB2589
	.uleb128 .LEHE27-.LEHB27
	.uleb128 0
	.uleb128 0
	.uleb128 .LEHB28-.LFB2589
	.uleb128 .LEHE28-.LEHB28
	.uleb128 .L140-.LFB2589
	.uleb128 0
	.uleb128 .LEHB29-.LFB2589
	.uleb128 .LEHE29-.LEHB29
	.uleb128 0
	.uleb128 0
.LLSDACSE2589:
	.byte	0x1
	.byte	0
	.align 4
	.long	0

.LLSDATT2589:
	.section	.text$_ZNSt6vectorIS_IiSaIiEESaIS1_EE14_M_fill_insertEN9__gnu_cxx17__normal_iteratorIPS1_S3_EEmRKS1_,"x"
	.linkonce discard
	.seh_endproc
	.section	.text$_ZNSt6vectorIS_IiSaIiEESaIS1_EE3endEv,"x"
	.linkonce discard
	.align 2
	.globl	_ZNSt6vectorIS_IiSaIiEESaIS1_EE3endEv
	.def	_ZNSt6vectorIS_IiSaIiEESaIS1_EE3endEv;	.scl	2;	.type	32;	.endef
	.seh_proc	_ZNSt6vectorIS_IiSaIiEESaIS1_EE3endEv
_ZNSt6vectorIS_IiSaIiEESaIS1_EE3endEv:
.LFB2590:
	pushq	%rbp
	.seh_pushreg	%rbp
	movq	%rsp, %rbp
	.seh_setframe	%rbp, 0
	subq	$48, %rsp
	.seh_stackalloc	48
	.seh_endprologue
	movq	%rcx, 16(%rbp)
	movq	16(%rbp), %rax
	leaq	8(%rax), %rdx
	leaq	-8(%rbp), %rax
	movq	%rax, %rcx
	call	_ZN9__gnu_cxx17__normal_iteratorIPSt6vectorIiSaIiEES1_IS3_SaIS3_EEEC1ERKS4_
	movq	-8(%rbp), %rax
	addq	$48, %rsp
	popq	%rbp
	ret
	.seh_endproc
	.section	.text$_ZNSt6vectorIS_IiSaIiEESaIS1_EE15_M_erase_at_endEPS1_,"x"
	.linkonce discard
	.align 2
	.globl	_ZNSt6vectorIS_IiSaIiEESaIS1_EE15_M_erase_at_endEPS1_
	.def	_ZNSt6vectorIS_IiSaIiEESaIS1_EE15_M_erase_at_endEPS1_;	.scl	2;	.type	32;	.endef
	.seh_proc	_ZNSt6vectorIS_IiSaIiEESaIS1_EE15_M_erase_at_endEPS1_
_ZNSt6vectorIS_IiSaIiEESaIS1_EE15_M_erase_at_endEPS1_:
.LFB2591:
	pushq	%rbp
	.seh_pushreg	%rbp
	movq	%rsp, %rbp
	.seh_setframe	%rbp, 0
	subq	$32, %rsp
	.seh_stackalloc	32
	.seh_endprologue
	movq	%rcx, 16(%rbp)
	movq	%rdx, 24(%rbp)
	movq	16(%rbp), %rax
	movq	%rax, %rcx
	call	_ZNSt12_Vector_baseISt6vectorIiSaIiEESaIS2_EE19_M_get_Tp_allocatorEv
	movq	%rax, %rcx
	movq	16(%rbp), %rax
	movq	8(%rax), %rdx
	movq	24(%rbp), %rax
	movq	%rcx, %r8
	movq	%rax, %rcx
	call	_ZSt8_DestroyIPSt6vectorIiSaIiEES2_EvT_S4_RSaIT0_E
	movq	16(%rbp), %rax
	movq	24(%rbp), %rdx
	movq	%rdx, 8(%rax)
	nop
	addq	$32, %rsp
	popq	%rbp
	ret
	.seh_handler	__gxx_personality_seh0, @unwind, @except
	.seh_handlerdata
.LLSDA2591:
	.byte	0xff
	.byte	0xff
	.byte	0x1
	.uleb128 .LLSDACSE2591-.LLSDACSB2591
.LLSDACSB2591:
.LLSDACSE2591:
	.section	.text$_ZNSt6vectorIS_IiSaIiEESaIS1_EE15_M_erase_at_endEPS1_,"x"
	.linkonce discard
	.seh_endproc
	.section	.text$_ZNSt6vectorIiSaIiEE14_M_fill_insertEN9__gnu_cxx17__normal_iteratorIPiS1_EEmRKi,"x"
	.linkonce discard
	.align 2
	.globl	_ZNSt6vectorIiSaIiEE14_M_fill_insertEN9__gnu_cxx17__normal_iteratorIPiS1_EEmRKi
	.def	_ZNSt6vectorIiSaIiEE14_M_fill_insertEN9__gnu_cxx17__normal_iteratorIPiS1_EEmRKi;	.scl	2;	.type	32;	.endef
	.seh_proc	_ZNSt6vectorIiSaIiEE14_M_fill_insertEN9__gnu_cxx17__normal_iteratorIPiS1_EEmRKi
_ZNSt6vectorIiSaIiEE14_M_fill_insertEN9__gnu_cxx17__normal_iteratorIPiS1_EEmRKi:
.LFB2594:
	pushq	%rbp
	.seh_pushreg	%rbp
	pushq	%rsi
	.seh_pushreg	%rsi
	pushq	%rbx
	.seh_pushreg	%rbx
	movq	%rsp, %rbp
	.seh_setframe	%rbp, 0
	addq	$-128, %rsp
	.seh_stackalloc	128
	.seh_endprologue
	movq	%rcx, 32(%rbp)
	movq	%rdx, 40(%rbp)
	movq	%r8, 48(%rbp)
	movq	%r9, 56(%rbp)
	cmpq	$0, 48(%rbp)
	je	.L159
	movq	32(%rbp), %rax
	movq	16(%rax), %rax
	movq	%rax, %rdx
	movq	32(%rbp), %rax
	movq	8(%rax), %rax
	subq	%rax, %rdx
	movq	%rdx, %rax
	sarq	$2, %rax
	cmpq	%rax, 48(%rbp)
	ja	.L147
	movq	56(%rbp), %rdx
	leaq	-96(%rbp), %rax
	movq	%rdx, %r8
	movq	32(%rbp), %rdx
	movq	%rax, %rcx
.LEHB30:
	call	_ZNSt6vectorIiSaIiEE16_Temporary_valueC1IJRKiEEEPS1_DpOT_
.LEHE30:
	leaq	-96(%rbp), %rax
	movq	%rax, %rcx
	call	_ZNSt6vectorIiSaIiEE16_Temporary_value6_M_valEv
	movq	%rax, -40(%rbp)
	movq	32(%rbp), %rcx
	call	_ZNSt6vectorIiSaIiEE3endEv
	movq	%rax, -72(%rbp)
	leaq	40(%rbp), %rdx
	leaq	-72(%rbp), %rax
	movq	%rax, %rcx
	call	_ZN9__gnu_cxxmiIPiSt6vectorIiSaIiEEEENS_17__normal_iteratorIT_T0_E15difference_typeERKS8_SB_
	movq	%rax, -48(%rbp)
	movq	32(%rbp), %rax
	movq	8(%rax), %rax
	movq	%rax, -56(%rbp)
	movq	-48(%rbp), %rax
	cmpq	48(%rbp), %rax
	jbe	.L148
	movq	32(%rbp), %rax
	movq	%rax, %rcx
	call	_ZNSt12_Vector_baseIiSaIiEE19_M_get_Tp_allocatorEv
	movq	%rax, %r9
	movq	32(%rbp), %rax
	movq	8(%rax), %r8
	movq	32(%rbp), %rax
	movq	8(%rax), %rax
	movq	32(%rbp), %rdx
	movq	8(%rdx), %rdx
	movq	48(%rbp), %rcx
	salq	$2, %rcx
	negq	%rcx
	addq	%rdx, %rcx
	movq	%rax, %rdx
.LEHB31:
	call	_ZSt22__uninitialized_move_aIPiS0_SaIiEET0_T_S3_S2_RT1_
	movq	32(%rbp), %rax
	movq	8(%rax), %rax
	movq	48(%rbp), %rdx
	salq	$2, %rdx
	addq	%rax, %rdx
	movq	32(%rbp), %rax
	movq	%rdx, 8(%rax)
	movq	48(%rbp), %rax
	salq	$2, %rax
	negq	%rax
	movq	%rax, %rdx
	movq	-56(%rbp), %rax
	leaq	(%rdx,%rax), %rbx
	leaq	40(%rbp), %rax
	movq	%rax, %rcx
	call	_ZNK9__gnu_cxx17__normal_iteratorIPiSt6vectorIiSaIiEEE4baseEv
	movq	(%rax), %rax
	movq	-56(%rbp), %rdx
	movq	%rdx, %r8
	movq	%rbx, %rdx
	movq	%rax, %rcx
	call	_ZSt13move_backwardIPiS0_ET0_T_S2_S1_
	leaq	40(%rbp), %rax
	movq	%rax, %rcx
	call	_ZNK9__gnu_cxx17__normal_iteratorIPiSt6vectorIiSaIiEEE4baseEv
	movq	(%rax), %rax
	movq	48(%rbp), %rdx
	salq	$2, %rdx
	leaq	(%rax,%rdx), %rbx
	leaq	40(%rbp), %rax
	movq	%rax, %rcx
	call	_ZNK9__gnu_cxx17__normal_iteratorIPiSt6vectorIiSaIiEEE4baseEv
	movq	(%rax), %rax
	movq	-40(%rbp), %rdx
	movq	%rdx, %r8
	movq	%rbx, %rdx
	movq	%rax, %rcx
	call	_ZSt4fillIPiiEvT_S1_RKT0_
	jmp	.L149
.L148:
	movq	32(%rbp), %rax
	movq	%rax, %rcx
	call	_ZNSt12_Vector_baseIiSaIiEE19_M_get_Tp_allocatorEv
	movq	%rax, %r8
	movq	48(%rbp), %rax
	subq	-48(%rbp), %rax
	movq	%rax, %rdx
	movq	32(%rbp), %rax
	movq	8(%rax), %rax
	movq	-40(%rbp), %rcx
	movq	%r8, %r9
	movq	%rcx, %r8
	movq	%rax, %rcx
	call	_ZSt24__uninitialized_fill_n_aIPimiiET_S1_T0_RKT1_RSaIT2_E
	movq	%rax, %rdx
	movq	32(%rbp), %rax
	movq	%rdx, 8(%rax)
	movq	32(%rbp), %rax
	movq	%rax, %rcx
	call	_ZNSt12_Vector_baseIiSaIiEE19_M_get_Tp_allocatorEv
	movq	%rax, %rsi
	movq	32(%rbp), %rax
	movq	8(%rax), %rbx
	leaq	40(%rbp), %rax
	movq	%rax, %rcx
	call	_ZNK9__gnu_cxx17__normal_iteratorIPiSt6vectorIiSaIiEEE4baseEv
	movq	(%rax), %rax
	movq	-56(%rbp), %rdx
	movq	%rsi, %r9
	movq	%rbx, %r8
	movq	%rax, %rcx
	call	_ZSt22__uninitialized_move_aIPiS0_SaIiEET0_T_S3_S2_RT1_
	movq	32(%rbp), %rax
	movq	8(%rax), %rax
	movq	-48(%rbp), %rdx
	salq	$2, %rdx
	addq	%rax, %rdx
	movq	32(%rbp), %rax
	movq	%rdx, 8(%rax)
	leaq	40(%rbp), %rax
	movq	%rax, %rcx
	call	_ZNK9__gnu_cxx17__normal_iteratorIPiSt6vectorIiSaIiEEE4baseEv
	movq	(%rax), %rax
	movq	-40(%rbp), %rcx
	movq	-56(%rbp), %rdx
	movq	%rcx, %r8
	movq	%rax, %rcx
	call	_ZSt4fillIPiiEvT_S1_RKT0_
.LEHE31:
.L149:
	leaq	-96(%rbp), %rax
	movq	%rax, %rcx
	call	_ZNSt6vectorIiSaIiEE16_Temporary_valueD1Ev
	jmp	.L159
.L147:
	movq	48(%rbp), %rax
	leaq	.LC4(%rip), %r8
	movq	%rax, %rdx
	movq	32(%rbp), %rcx
.LEHB32:
	call	_ZNKSt6vectorIiSaIiEE12_M_check_lenEmPKc
	movq	%rax, -16(%rbp)
	movq	32(%rbp), %rcx
	call	_ZNSt6vectorIiSaIiEE5beginEv
	movq	%rax, -64(%rbp)
	leaq	-64(%rbp), %rdx
	leaq	40(%rbp), %rax
	movq	%rax, %rcx
	call	_ZN9__gnu_cxxmiIPiSt6vectorIiSaIiEEEENS_17__normal_iteratorIT_T0_E15difference_typeERKS8_SB_
	movq	%rax, -24(%rbp)
	movq	32(%rbp), %rax
	movq	-16(%rbp), %rdx
	movq	%rax, %rcx
	call	_ZNSt12_Vector_baseIiSaIiEE11_M_allocateEm
.LEHE32:
	movq	%rax, -32(%rbp)
	movq	-32(%rbp), %rax
	movq	%rax, -8(%rbp)
	movq	32(%rbp), %rax
	movq	%rax, %rcx
	call	_ZNSt12_Vector_baseIiSaIiEE19_M_get_Tp_allocatorEv
	movq	%rax, %r8
	movq	-24(%rbp), %rax
	leaq	0(,%rax,4), %rdx
	movq	-32(%rbp), %rax
	leaq	(%rdx,%rax), %rcx
	movq	56(%rbp), %rdx
	movq	48(%rbp), %rax
	movq	%r8, %r9
	movq	%rdx, %r8
	movq	%rax, %rdx
.LEHB33:
	call	_ZSt24__uninitialized_fill_n_aIPimiiET_S1_T0_RKT1_RSaIT2_E
	movq	$0, -8(%rbp)
	movq	32(%rbp), %rax
	movq	%rax, %rcx
	call	_ZNSt12_Vector_baseIiSaIiEE19_M_get_Tp_allocatorEv
	movq	%rax, %rbx
	leaq	40(%rbp), %rax
	movq	%rax, %rcx
	call	_ZNK9__gnu_cxx17__normal_iteratorIPiSt6vectorIiSaIiEEE4baseEv
	movq	(%rax), %rdx
	movq	32(%rbp), %rax
	movq	(%rax), %rax
	movq	-32(%rbp), %rcx
	movq	%rbx, %r9
	movq	%rcx, %r8
	movq	%rax, %rcx
	call	_ZSt34__uninitialized_move_if_noexcept_aIPiS0_SaIiEET0_T_S3_S2_RT1_
	movq	%rax, -8(%rbp)
	movq	48(%rbp), %rax
	salq	$2, %rax
	addq	%rax, -8(%rbp)
	movq	32(%rbp), %rax
	movq	%rax, %rcx
	call	_ZNSt12_Vector_baseIiSaIiEE19_M_get_Tp_allocatorEv
	movq	%rax, %rsi
	movq	32(%rbp), %rax
	movq	8(%rax), %rbx
	leaq	40(%rbp), %rax
	movq	%rax, %rcx
	call	_ZNK9__gnu_cxx17__normal_iteratorIPiSt6vectorIiSaIiEEE4baseEv
	movq	(%rax), %rax
	movq	-8(%rbp), %rdx
	movq	%rsi, %r9
	movq	%rdx, %r8
	movq	%rbx, %rdx
	movq	%rax, %rcx
	call	_ZSt34__uninitialized_move_if_noexcept_aIPiS0_SaIiEET0_T_S3_S2_RT1_
.LEHE33:
	movq	%rax, -8(%rbp)
	movq	32(%rbp), %rax
	movq	%rax, %rcx
	call	_ZNSt12_Vector_baseIiSaIiEE19_M_get_Tp_allocatorEv
	movq	%rax, %rcx
	movq	32(%rbp), %rax
	movq	8(%rax), %rdx
	movq	32(%rbp), %rax
	movq	(%rax), %rax
	movq	%rcx, %r8
	movq	%rax, %rcx
.LEHB34:
	call	_ZSt8_DestroyIPiiEvT_S1_RSaIT0_E
	movq	32(%rbp), %rax
	movq	32(%rbp), %rdx
	movq	16(%rdx), %rdx
	movq	%rdx, %rcx
	movq	32(%rbp), %rdx
	movq	(%rdx), %rdx
	subq	%rdx, %rcx
	movq	%rcx, %rdx
	sarq	$2, %rdx
	movq	%rdx, %rcx
	movq	32(%rbp), %rdx
	movq	(%rdx), %rdx
	movq	%rcx, %r8
	movq	%rax, %rcx
	call	_ZNSt12_Vector_baseIiSaIiEE13_M_deallocateEPim
	movq	32(%rbp), %rax
	movq	-32(%rbp), %rdx
	movq	%rdx, (%rax)
	movq	32(%rbp), %rax
	movq	-8(%rbp), %rdx
	movq	%rdx, 8(%rax)
	movq	-16(%rbp), %rax
	leaq	0(,%rax,4), %rdx
	movq	-32(%rbp), %rax
	addq	%rax, %rdx
	movq	32(%rbp), %rax
	movq	%rdx, 16(%rax)
	jmp	.L159
.L156:
	movq	%rax, %rbx
	leaq	-96(%rbp), %rax
	movq	%rax, %rcx
	call	_ZNSt6vectorIiSaIiEE16_Temporary_valueD1Ev
	movq	%rbx, %rax
	movq	%rax, %rcx
	call	_Unwind_Resume
.LEHE34:
.L157:
	movq	%rax, %rcx
	call	__cxa_begin_catch
	cmpq	$0, -8(%rbp)
	jne	.L153
	movq	32(%rbp), %rax
	movq	%rax, %rcx
	call	_ZNSt12_Vector_baseIiSaIiEE19_M_get_Tp_allocatorEv
	movq	%rax, %r8
	movq	-24(%rbp), %rdx
	movq	48(%rbp), %rax
	addq	%rdx, %rax
	leaq	0(,%rax,4), %rdx
	movq	-32(%rbp), %rax
	addq	%rax, %rdx
	movq	-24(%rbp), %rax
	leaq	0(,%rax,4), %rcx
	movq	-32(%rbp), %rax
	addq	%rcx, %rax
	movq	%rax, %rcx
.LEHB35:
	call	_ZSt8_DestroyIPiiEvT_S1_RSaIT0_E
	jmp	.L154
.L153:
	movq	32(%rbp), %rax
	movq	%rax, %rcx
	call	_ZNSt12_Vector_baseIiSaIiEE19_M_get_Tp_allocatorEv
	movq	%rax, %rcx
	movq	-8(%rbp), %rdx
	movq	-32(%rbp), %rax
	movq	%rcx, %r8
	movq	%rax, %rcx
	call	_ZSt8_DestroyIPiiEvT_S1_RSaIT0_E
.L154:
	movq	32(%rbp), %rax
	movq	-16(%rbp), %rcx
	movq	-32(%rbp), %rdx
	movq	%rcx, %r8
	movq	%rax, %rcx
	call	_ZNSt12_Vector_baseIiSaIiEE13_M_deallocateEPim
	call	__cxa_rethrow
.LEHE35:
.L158:
	movq	%rax, %rbx
	call	__cxa_end_catch
	movq	%rbx, %rax
	movq	%rax, %rcx
.LEHB36:
	call	_Unwind_Resume
.LEHE36:
.L159:
	nop
	subq	$-128, %rsp
	popq	%rbx
	popq	%rsi
	popq	%rbp
	ret
	.seh_handler	__gxx_personality_seh0, @unwind, @except
	.seh_handlerdata
	.align 4
.LLSDA2594:
	.byte	0xff
	.byte	0x9b
	.uleb128 .LLSDATT2594-.LLSDATTD2594
.LLSDATTD2594:
	.byte	0x1
	.uleb128 .LLSDACSE2594-.LLSDACSB2594
.LLSDACSB2594:
	.uleb128 .LEHB30-.LFB2594
	.uleb128 .LEHE30-.LEHB30
	.uleb128 0
	.uleb128 0
	.uleb128 .LEHB31-.LFB2594
	.uleb128 .LEHE31-.LEHB31
	.uleb128 .L156-.LFB2594
	.uleb128 0
	.uleb128 .LEHB32-.LFB2594
	.uleb128 .LEHE32-.LEHB32
	.uleb128 0
	.uleb128 0
	.uleb128 .LEHB33-.LFB2594
	.uleb128 .LEHE33-.LEHB33
	.uleb128 .L157-.LFB2594
	.uleb128 0x1
	.uleb128 .LEHB34-.LFB2594
	.uleb128 .LEHE34-.LEHB34
	.uleb128 0
	.uleb128 0
	.uleb128 .LEHB35-.LFB2594
	.uleb128 .LEHE35-.LEHB35
	.uleb128 .L158-.LFB2594
	.uleb128 0
	.uleb128 .LEHB36-.LFB2594
	.uleb128 .LEHE36-.LEHB36
	.uleb128 0
	.uleb128 0
.LLSDACSE2594:
	.byte	0x1
	.byte	0
	.align 4
	.long	0

.LLSDATT2594:
	.section	.text$_ZNSt6vectorIiSaIiEE14_M_fill_insertEN9__gnu_cxx17__normal_iteratorIPiS1_EEmRKi,"x"
	.linkonce discard
	.seh_endproc
	.section	.text$_ZNSt6vectorIiSaIiEE3endEv,"x"
	.linkonce discard
	.align 2
	.globl	_ZNSt6vectorIiSaIiEE3endEv
	.def	_ZNSt6vectorIiSaIiEE3endEv;	.scl	2;	.type	32;	.endef
	.seh_proc	_ZNSt6vectorIiSaIiEE3endEv
_ZNSt6vectorIiSaIiEE3endEv:
.LFB2595:
	pushq	%rbp
	.seh_pushreg	%rbp
	movq	%rsp, %rbp
	.seh_setframe	%rbp, 0
	subq	$48, %rsp
	.seh_stackalloc	48
	.seh_endprologue
	movq	%rcx, 16(%rbp)
	movq	16(%rbp), %rax
	leaq	8(%rax), %rdx
	leaq	-8(%rbp), %rax
	movq	%rax, %rcx
	call	_ZN9__gnu_cxx17__normal_iteratorIPiSt6vectorIiSaIiEEEC1ERKS1_
	movq	-8(%rbp), %rax
	addq	$48, %rsp
	popq	%rbp
	ret
	.seh_endproc
	.section	.text$_ZNSt6vectorIiSaIiEE15_M_erase_at_endEPi,"x"
	.linkonce discard
	.align 2
	.globl	_ZNSt6vectorIiSaIiEE15_M_erase_at_endEPi
	.def	_ZNSt6vectorIiSaIiEE15_M_erase_at_endEPi;	.scl	2;	.type	32;	.endef
	.seh_proc	_ZNSt6vectorIiSaIiEE15_M_erase_at_endEPi
_ZNSt6vectorIiSaIiEE15_M_erase_at_endEPi:
.LFB2596:
	pushq	%rbp
	.seh_pushreg	%rbp
	movq	%rsp, %rbp
	.seh_setframe	%rbp, 0
	subq	$32, %rsp
	.seh_stackalloc	32
	.seh_endprologue
	movq	%rcx, 16(%rbp)
	movq	%rdx, 24(%rbp)
	movq	16(%rbp), %rax
	movq	%rax, %rcx
	call	_ZNSt12_Vector_baseIiSaIiEE19_M_get_Tp_allocatorEv
	movq	%rax, %rcx
	movq	16(%rbp), %rax
	movq	8(%rax), %rdx
	movq	24(%rbp), %rax
	movq	%rcx, %r8
	movq	%rax, %rcx
	call	_ZSt8_DestroyIPiiEvT_S1_RSaIT0_E
	movq	16(%rbp), %rax
	movq	24(%rbp), %rdx
	movq	%rdx, 8(%rax)
	nop
	addq	$32, %rsp
	popq	%rbp
	ret
	.seh_handler	__gxx_personality_seh0, @unwind, @except
	.seh_handlerdata
.LLSDA2596:
	.byte	0xff
	.byte	0xff
	.byte	0x1
	.uleb128 .LLSDACSE2596-.LLSDACSB2596
.LLSDACSB2596:
.LLSDACSE2596:
	.section	.text$_ZNSt6vectorIiSaIiEE15_M_erase_at_endEPi,"x"
	.linkonce discard
	.seh_endproc
	.section	.text$_ZNSt10_List_baseIiSaIiEEC2Ev,"x"
	.linkonce discard
	.align 2
	.globl	_ZNSt10_List_baseIiSaIiEEC2Ev
	.def	_ZNSt10_List_baseIiSaIiEEC2Ev;	.scl	2;	.type	32;	.endef
	.seh_proc	_ZNSt10_List_baseIiSaIiEEC2Ev
_ZNSt10_List_baseIiSaIiEEC2Ev:
.LFB2598:
	pushq	%rbp
	.seh_pushreg	%rbp
	movq	%rsp, %rbp
	.seh_setframe	%rbp, 0
	subq	$32, %rsp
	.seh_stackalloc	32
	.seh_endprologue
	movq	%rcx, 16(%rbp)
	movq	16(%rbp), %rax
	movq	%rax, %rcx
	call	_ZNSt10_List_baseIiSaIiEE10_List_implC1Ev
	movq	16(%rbp), %rcx
	call	_ZNSt10_List_baseIiSaIiEE7_M_initEv
	nop
	addq	$32, %rsp
	popq	%rbp
	ret
	.seh_endproc
	.section	.text$_ZNSaISt10_List_nodeIiEED2Ev,"x"
	.linkonce discard
	.align 2
	.globl	_ZNSaISt10_List_nodeIiEED2Ev
	.def	_ZNSaISt10_List_nodeIiEED2Ev;	.scl	2;	.type	32;	.endef
	.seh_proc	_ZNSaISt10_List_nodeIiEED2Ev
_ZNSaISt10_List_nodeIiEED2Ev:
.LFB2601:
	pushq	%rbp
	.seh_pushreg	%rbp
	movq	%rsp, %rbp
	.seh_setframe	%rbp, 0
	subq	$32, %rsp
	.seh_stackalloc	32
	.seh_endprologue
	movq	%rcx, 16(%rbp)
	movq	16(%rbp), %rcx
	call	_ZN9__gnu_cxx13new_allocatorISt10_List_nodeIiEED2Ev
	nop
	addq	$32, %rsp
	popq	%rbp
	ret
	.seh_endproc
	.section	.text$_ZNSt10_List_baseIiSaIiEE8_M_clearEv,"x"
	.linkonce discard
	.align 2
	.globl	_ZNSt10_List_baseIiSaIiEE8_M_clearEv
	.def	_ZNSt10_List_baseIiSaIiEE8_M_clearEv;	.scl	2;	.type	32;	.endef
	.seh_proc	_ZNSt10_List_baseIiSaIiEE8_M_clearEv
_ZNSt10_List_baseIiSaIiEE8_M_clearEv:
.LFB2603:
	pushq	%rbp
	.seh_pushreg	%rbp
	movq	%rsp, %rbp
	.seh_setframe	%rbp, 0
	subq	$64, %rsp
	.seh_stackalloc	64
	.seh_endprologue
	movq	%rcx, 16(%rbp)
	movq	16(%rbp), %rax
	movq	(%rax), %rax
	movq	%rax, -8(%rbp)
.L167:
	movq	16(%rbp), %rax
	cmpq	%rax, -8(%rbp)
	je	.L168
	movq	-8(%rbp), %rax
	movq	%rax, -16(%rbp)
	movq	-16(%rbp), %rax
	movq	(%rax), %rax
	movq	%rax, -8(%rbp)
	movq	-16(%rbp), %rax
	movq	%rax, %rcx
	call	_ZNSt10_List_nodeIiE9_M_valptrEv
	movq	%rax, -24(%rbp)
	movq	16(%rbp), %rcx
	call	_ZNSt10_List_baseIiSaIiEE21_M_get_Node_allocatorEv
	movq	%rax, %rcx
	movq	-24(%rbp), %rax
	movq	%rax, %rdx
	call	_ZNSt16allocator_traitsISaISt10_List_nodeIiEEE7destroyIiEEvRS2_PT_
	movq	-16(%rbp), %rax
	movq	%rax, %rdx
	movq	16(%rbp), %rcx
	call	_ZNSt10_List_baseIiSaIiEE11_M_put_nodeEPSt10_List_nodeIiE
	jmp	.L167
.L168:
	nop
	addq	$64, %rsp
	popq	%rbp
	ret
	.seh_handler	__gxx_personality_seh0, @unwind, @except
	.seh_handlerdata
.LLSDA2603:
	.byte	0xff
	.byte	0xff
	.byte	0x1
	.uleb128 .LLSDACSE2603-.LLSDACSB2603
.LLSDACSB2603:
.LLSDACSE2603:
	.section	.text$_ZNSt10_List_baseIiSaIiEE8_M_clearEv,"x"
	.linkonce discard
	.seh_endproc
	.section	.text$_ZN9__gnu_cxx14__alloc_traitsISaIiEE17_S_select_on_copyERKS1_,"x"
	.linkonce discard
	.globl	_ZN9__gnu_cxx14__alloc_traitsISaIiEE17_S_select_on_copyERKS1_
	.def	_ZN9__gnu_cxx14__alloc_traitsISaIiEE17_S_select_on_copyERKS1_;	.scl	2;	.type	32;	.endef
	.seh_proc	_ZN9__gnu_cxx14__alloc_traitsISaIiEE17_S_select_on_copyERKS1_
_ZN9__gnu_cxx14__alloc_traitsISaIiEE17_S_select_on_copyERKS1_:
.LFB2604:
	pushq	%rbp
	.seh_pushreg	%rbp
	movq	%rsp, %rbp
	.seh_setframe	%rbp, 0
	subq	$32, %rsp
	.seh_stackalloc	32
	.seh_endprologue
	movq	%rcx, 16(%rbp)
	movq	%rdx, 24(%rbp)
	movq	16(%rbp), %rax
	movq	24(%rbp), %rdx
	movq	%rax, %rcx
	call	_ZNSt16allocator_traitsISaIiEE37select_on_container_copy_constructionERKS0_
	movq	16(%rbp), %rax
	addq	$32, %rsp
	popq	%rbp
	ret
	.seh_endproc
	.section	.text$_ZNKSt12_Vector_baseIiSaIiEE19_M_get_Tp_allocatorEv,"x"
	.linkonce discard
	.align 2
	.globl	_ZNKSt12_Vector_baseIiSaIiEE19_M_get_Tp_allocatorEv
	.def	_ZNKSt12_Vector_baseIiSaIiEE19_M_get_Tp_allocatorEv;	.scl	2;	.type	32;	.endef
	.seh_proc	_ZNKSt12_Vector_baseIiSaIiEE19_M_get_Tp_allocatorEv
_ZNKSt12_Vector_baseIiSaIiEE19_M_get_Tp_allocatorEv:
.LFB2605:
	pushq	%rbp
	.seh_pushreg	%rbp
	movq	%rsp, %rbp
	.seh_setframe	%rbp, 0
	.seh_endprologue
	movq	%rcx, 16(%rbp)
	movq	16(%rbp), %rax
	popq	%rbp
	ret
	.seh_endproc
	.section	.text$_ZNKSt6vectorIiSaIiEE5beginEv,"x"
	.linkonce discard
	.align 2
	.globl	_ZNKSt6vectorIiSaIiEE5beginEv
	.def	_ZNKSt6vectorIiSaIiEE5beginEv;	.scl	2;	.type	32;	.endef
	.seh_proc	_ZNKSt6vectorIiSaIiEE5beginEv
_ZNKSt6vectorIiSaIiEE5beginEv:
.LFB2606:
	pushq	%rbp
	.seh_pushreg	%rbp
	movq	%rsp, %rbp
	.seh_setframe	%rbp, 0
	subq	$48, %rsp
	.seh_stackalloc	48
	.seh_endprologue
	movq	%rcx, 16(%rbp)
	movq	16(%rbp), %rax
	movq	(%rax), %rax
	movq	%rax, -8(%rbp)
	leaq	-8(%rbp), %rdx
	leaq	-16(%rbp), %rax
	movq	%rax, %rcx
	call	_ZN9__gnu_cxx17__normal_iteratorIPKiSt6vectorIiSaIiEEEC1ERKS2_
	movq	-16(%rbp), %rax
	addq	$48, %rsp
	popq	%rbp
	ret
	.seh_endproc
	.section	.text$_ZNKSt6vectorIiSaIiEE3endEv,"x"
	.linkonce discard
	.align 2
	.globl	_ZNKSt6vectorIiSaIiEE3endEv
	.def	_ZNKSt6vectorIiSaIiEE3endEv;	.scl	2;	.type	32;	.endef
	.seh_proc	_ZNKSt6vectorIiSaIiEE3endEv
_ZNKSt6vectorIiSaIiEE3endEv:
.LFB2607:
	pushq	%rbp
	.seh_pushreg	%rbp
	movq	%rsp, %rbp
	.seh_setframe	%rbp, 0
	subq	$48, %rsp
	.seh_stackalloc	48
	.seh_endprologue
	movq	%rcx, 16(%rbp)
	movq	16(%rbp), %rax
	movq	8(%rax), %rax
	movq	%rax, -8(%rbp)
	leaq	-8(%rbp), %rdx
	leaq	-16(%rbp), %rax
	movq	%rax, %rcx
	call	_ZN9__gnu_cxx17__normal_iteratorIPKiSt6vectorIiSaIiEEEC1ERKS2_
	movq	-16(%rbp), %rax
	addq	$48, %rsp
	popq	%rbp
	ret
	.seh_endproc
	.section	.text$_ZSt22__uninitialized_copy_aIN9__gnu_cxx17__normal_iteratorIPKiSt6vectorIiSaIiEEEEPiiET0_T_SA_S9_RSaIT1_E,"x"
	.linkonce discard
	.globl	_ZSt22__uninitialized_copy_aIN9__gnu_cxx17__normal_iteratorIPKiSt6vectorIiSaIiEEEEPiiET0_T_SA_S9_RSaIT1_E
	.def	_ZSt22__uninitialized_copy_aIN9__gnu_cxx17__normal_iteratorIPKiSt6vectorIiSaIiEEEEPiiET0_T_SA_S9_RSaIT1_E;	.scl	2;	.type	32;	.endef
	.seh_proc	_ZSt22__uninitialized_copy_aIN9__gnu_cxx17__normal_iteratorIPKiSt6vectorIiSaIiEEEEPiiET0_T_SA_S9_RSaIT1_E
_ZSt22__uninitialized_copy_aIN9__gnu_cxx17__normal_iteratorIPKiSt6vectorIiSaIiEEEEPiiET0_T_SA_S9_RSaIT1_E:
.LFB2608:
	pushq	%rbp
	.seh_pushreg	%rbp
	movq	%rsp, %rbp
	.seh_setframe	%rbp, 0
	subq	$32, %rsp
	.seh_stackalloc	32
	.seh_endprologue
	movq	%rcx, 16(%rbp)
	movq	%rdx, 24(%rbp)
	movq	%r8, 32(%rbp)
	movq	%r9, 40(%rbp)
	movq	32(%rbp), %rdx
	movq	24(%rbp), %rax
	movq	%rdx, %r8
	movq	%rax, %rdx
	movq	16(%rbp), %rcx
	call	_ZSt18uninitialized_copyIN9__gnu_cxx17__normal_iteratorIPKiSt6vectorIiSaIiEEEEPiET0_T_SA_S9_
	addq	$32, %rsp
	popq	%rbp
	ret
	.seh_endproc
	.section	.text$_ZNSt4listIiSaIiEE5beginEv,"x"
	.linkonce discard
	.align 2
	.globl	_ZNSt4listIiSaIiEE5beginEv
	.def	_ZNSt4listIiSaIiEE5beginEv;	.scl	2;	.type	32;	.endef
	.seh_proc	_ZNSt4listIiSaIiEE5beginEv
_ZNSt4listIiSaIiEE5beginEv:
.LFB2609:
	pushq	%rbp
	.seh_pushreg	%rbp
	movq	%rsp, %rbp
	.seh_setframe	%rbp, 0
	subq	$48, %rsp
	.seh_stackalloc	48
	.seh_endprologue
	movq	%rcx, 16(%rbp)
	movq	16(%rbp), %rax
	movq	(%rax), %rdx
	leaq	-8(%rbp), %rax
	movq	%rax, %rcx
	call	_ZNSt14_List_iteratorIiEC1EPNSt8__detail15_List_node_baseE
	movq	-8(%rbp), %rax
	addq	$48, %rsp
	popq	%rbp
	ret
	.seh_endproc
	.section	.text$_ZSt4moveIRiEONSt16remove_referenceIT_E4typeEOS2_,"x"
	.linkonce discard
	.globl	_ZSt4moveIRiEONSt16remove_referenceIT_E4typeEOS2_
	.def	_ZSt4moveIRiEONSt16remove_referenceIT_E4typeEOS2_;	.scl	2;	.type	32;	.endef
	.seh_proc	_ZSt4moveIRiEONSt16remove_referenceIT_E4typeEOS2_
_ZSt4moveIRiEONSt16remove_referenceIT_E4typeEOS2_:
.LFB2610:
	pushq	%rbp
	.seh_pushreg	%rbp
	movq	%rsp, %rbp
	.seh_setframe	%rbp, 0
	.seh_endprologue
	movq	%rcx, 16(%rbp)
	movq	16(%rbp), %rax
	popq	%rbp
	ret
	.seh_endproc
	.section	.text$_ZNSt4listIiSaIiEE9_M_insertIJiEEEvSt14_List_iteratorIiEDpOT_,"x"
	.linkonce discard
	.align 2
	.globl	_ZNSt4listIiSaIiEE9_M_insertIJiEEEvSt14_List_iteratorIiEDpOT_
	.def	_ZNSt4listIiSaIiEE9_M_insertIJiEEEvSt14_List_iteratorIiEDpOT_;	.scl	2;	.type	32;	.endef
	.seh_proc	_ZNSt4listIiSaIiEE9_M_insertIJiEEEvSt14_List_iteratorIiEDpOT_
_ZNSt4listIiSaIiEE9_M_insertIJiEEEvSt14_List_iteratorIiEDpOT_:
.LFB2611:
	pushq	%rbp
	.seh_pushreg	%rbp
	movq	%rsp, %rbp
	.seh_setframe	%rbp, 0
	subq	$48, %rsp
	.seh_stackalloc	48
	.seh_endprologue
	movq	%rcx, 16(%rbp)
	movq	%rdx, 24(%rbp)
	movq	%r8, 32(%rbp)
	movq	32(%rbp), %rax
	movq	%rax, %rcx
	call	_ZSt7forwardIiEOT_RNSt16remove_referenceIS0_E4typeE
	movq	%rax, %rdx
	movq	16(%rbp), %rcx
	call	_ZNSt4listIiSaIiEE14_M_create_nodeIJiEEEPSt10_List_nodeIiEDpOT_
	movq	%rax, -8(%rbp)
	movq	-8(%rbp), %rax
	movq	24(%rbp), %rdx
	movq	%rax, %rcx
	call	_ZNSt8__detail15_List_node_base7_M_hookEPS0_
	movq	16(%rbp), %rax
	movl	$1, %edx
	movq	%rax, %rcx
	call	_ZNSt10_List_baseIiSaIiEE11_M_inc_sizeEm
	nop
	addq	$48, %rsp
	popq	%rbp
	ret
	.seh_endproc
	.section	.text$_ZN9__gnu_cxx14__alloc_traitsISaISt6vectorIiSaIiEEEE17_S_select_on_copyERKS4_,"x"
	.linkonce discard
	.globl	_ZN9__gnu_cxx14__alloc_traitsISaISt6vectorIiSaIiEEEE17_S_select_on_copyERKS4_
	.def	_ZN9__gnu_cxx14__alloc_traitsISaISt6vectorIiSaIiEEEE17_S_select_on_copyERKS4_;	.scl	2;	.type	32;	.endef
	.seh_proc	_ZN9__gnu_cxx14__alloc_traitsISaISt6vectorIiSaIiEEEE17_S_select_on_copyERKS4_
_ZN9__gnu_cxx14__alloc_traitsISaISt6vectorIiSaIiEEEE17_S_select_on_copyERKS4_:
.LFB2612:
	pushq	%rbp
	.seh_pushreg	%rbp
	movq	%rsp, %rbp
	.seh_setframe	%rbp, 0
	subq	$32, %rsp
	.seh_stackalloc	32
	.seh_endprologue
	movq	%rcx, 16(%rbp)
	movq	%rdx, 24(%rbp)
	movq	16(%rbp), %rax
	movq	24(%rbp), %rdx
	movq	%rax, %rcx
	call	_ZNSt16allocator_traitsISaISt6vectorIiSaIiEEEE37select_on_container_copy_constructionERKS3_
	movq	16(%rbp), %rax
	addq	$32, %rsp
	popq	%rbp
	ret
	.seh_endproc
	.section	.text$_ZNKSt12_Vector_baseISt6vectorIiSaIiEESaIS2_EE19_M_get_Tp_allocatorEv,"x"
	.linkonce discard
	.align 2
	.globl	_ZNKSt12_Vector_baseISt6vectorIiSaIiEESaIS2_EE19_M_get_Tp_allocatorEv
	.def	_ZNKSt12_Vector_baseISt6vectorIiSaIiEESaIS2_EE19_M_get_Tp_allocatorEv;	.scl	2;	.type	32;	.endef
	.seh_proc	_ZNKSt12_Vector_baseISt6vectorIiSaIiEESaIS2_EE19_M_get_Tp_allocatorEv
_ZNKSt12_Vector_baseISt6vectorIiSaIiEESaIS2_EE19_M_get_Tp_allocatorEv:
.LFB2613:
	pushq	%rbp
	.seh_pushreg	%rbp
	movq	%rsp, %rbp
	.seh_setframe	%rbp, 0
	.seh_endprologue
	movq	%rcx, 16(%rbp)
	movq	16(%rbp), %rax
	popq	%rbp
	ret
	.seh_endproc
	.section	.text$_ZNSaISt6vectorIiSaIiEEED2Ev,"x"
	.linkonce discard
	.align 2
	.globl	_ZNSaISt6vectorIiSaIiEEED2Ev
	.def	_ZNSaISt6vectorIiSaIiEEED2Ev;	.scl	2;	.type	32;	.endef
	.seh_proc	_ZNSaISt6vectorIiSaIiEEED2Ev
_ZNSaISt6vectorIiSaIiEEED2Ev:
.LFB2615:
	pushq	%rbp
	.seh_pushreg	%rbp
	movq	%rsp, %rbp
	.seh_setframe	%rbp, 0
	subq	$32, %rsp
	.seh_stackalloc	32
	.seh_endprologue
	movq	%rcx, 16(%rbp)
	movq	16(%rbp), %rcx
	call	_ZN9__gnu_cxx13new_allocatorISt6vectorIiSaIiEEED2Ev
	nop
	addq	$32, %rsp
	popq	%rbp
	ret
	.seh_endproc
	.section	.text$_ZNSaISt6vectorIiSaIiEEED1Ev,"x"
	.linkonce discard
	.align 2
	.globl	_ZNSaISt6vectorIiSaIiEEED1Ev
	.def	_ZNSaISt6vectorIiSaIiEEED1Ev;	.scl	2;	.type	32;	.endef
	.seh_proc	_ZNSaISt6vectorIiSaIiEEED1Ev
_ZNSaISt6vectorIiSaIiEEED1Ev:
.LFB2616:
	pushq	%rbp
	.seh_pushreg	%rbp
	movq	%rsp, %rbp
	.seh_setframe	%rbp, 0
	subq	$32, %rsp
	.seh_stackalloc	32
	.seh_endprologue
	movq	%rcx, 16(%rbp)
	movq	16(%rbp), %rcx
	call	_ZN9__gnu_cxx13new_allocatorISt6vectorIiSaIiEEED2Ev
	nop
	addq	$32, %rsp
	popq	%rbp
	ret
	.seh_endproc
	.section	.text$_ZNSt12_Vector_baseISt6vectorIiSaIiEESaIS2_EEC2EmRKS3_,"x"
	.linkonce discard
	.align 2
	.globl	_ZNSt12_Vector_baseISt6vectorIiSaIiEESaIS2_EEC2EmRKS3_
	.def	_ZNSt12_Vector_baseISt6vectorIiSaIiEESaIS2_EEC2EmRKS3_;	.scl	2;	.type	32;	.endef
	.seh_proc	_ZNSt12_Vector_baseISt6vectorIiSaIiEESaIS2_EEC2EmRKS3_
_ZNSt12_Vector_baseISt6vectorIiSaIiEESaIS2_EEC2EmRKS3_:
.LFB2618:
	pushq	%rbp
	.seh_pushreg	%rbp
	pushq	%rbx
	.seh_pushreg	%rbx
	subq	$40, %rsp
	.seh_stackalloc	40
	leaq	128(%rsp), %rbp
	.seh_setframe	%rbp, 128
	.seh_endprologue
	movq	%rcx, -64(%rbp)
	movq	%rdx, -56(%rbp)
	movq	%r8, -48(%rbp)
	movq	-64(%rbp), %rax
	movq	-48(%rbp), %rdx
	movq	%rax, %rcx
	call	_ZNSt12_Vector_baseISt6vectorIiSaIiEESaIS2_EE12_Vector_implC1ERKS3_
	movq	-56(%rbp), %rax
	movq	%rax, %rdx
	movq	-64(%rbp), %rcx
.LEHB37:
	call	_ZNSt12_Vector_baseISt6vectorIiSaIiEESaIS2_EE17_M_create_storageEm
.LEHE37:
	jmp	.L193
.L192:
	movq	%rax, %rbx
	movq	-64(%rbp), %rax
	movq	%rax, %rcx
	call	_ZNSt12_Vector_baseISt6vectorIiSaIiEESaIS2_EE12_Vector_implD1Ev
	movq	%rbx, %rax
	movq	%rax, %rcx
.LEHB38:
	call	_Unwind_Resume
	nop
.LEHE38:
.L193:
	addq	$40, %rsp
	popq	%rbx
	popq	%rbp
	ret
	.seh_handler	__gxx_personality_seh0, @unwind, @except
	.seh_handlerdata
.LLSDA2618:
	.byte	0xff
	.byte	0xff
	.byte	0x1
	.uleb128 .LLSDACSE2618-.LLSDACSB2618
.LLSDACSB2618:
	.uleb128 .LEHB37-.LFB2618
	.uleb128 .LEHE37-.LEHB37
	.uleb128 .L192-.LFB2618
	.uleb128 0
	.uleb128 .LEHB38-.LFB2618
	.uleb128 .LEHE38-.LEHB38
	.uleb128 0
	.uleb128 0
.LLSDACSE2618:
	.section	.text$_ZNSt12_Vector_baseISt6vectorIiSaIiEESaIS2_EEC2EmRKS3_,"x"
	.linkonce discard
	.seh_endproc
	.section	.text$_ZNKSt6vectorIS_IiSaIiEESaIS1_EE5beginEv,"x"
	.linkonce discard
	.align 2
	.globl	_ZNKSt6vectorIS_IiSaIiEESaIS1_EE5beginEv
	.def	_ZNKSt6vectorIS_IiSaIiEESaIS1_EE5beginEv;	.scl	2;	.type	32;	.endef
	.seh_proc	_ZNKSt6vectorIS_IiSaIiEESaIS1_EE5beginEv
_ZNKSt6vectorIS_IiSaIiEESaIS1_EE5beginEv:
.LFB2620:
	pushq	%rbp
	.seh_pushreg	%rbp
	movq	%rsp, %rbp
	.seh_setframe	%rbp, 0
	subq	$48, %rsp
	.seh_stackalloc	48
	.seh_endprologue
	movq	%rcx, 16(%rbp)
	movq	16(%rbp), %rax
	movq	(%rax), %rax
	movq	%rax, -8(%rbp)
	leaq	-8(%rbp), %rdx
	leaq	-16(%rbp), %rax
	movq	%rax, %rcx
	call	_ZN9__gnu_cxx17__normal_iteratorIPKSt6vectorIiSaIiEES1_IS3_SaIS3_EEEC1ERKS5_
	movq	-16(%rbp), %rax
	addq	$48, %rsp
	popq	%rbp
	ret
	.seh_endproc
	.section	.text$_ZNKSt6vectorIS_IiSaIiEESaIS1_EE3endEv,"x"
	.linkonce discard
	.align 2
	.globl	_ZNKSt6vectorIS_IiSaIiEESaIS1_EE3endEv
	.def	_ZNKSt6vectorIS_IiSaIiEESaIS1_EE3endEv;	.scl	2;	.type	32;	.endef
	.seh_proc	_ZNKSt6vectorIS_IiSaIiEESaIS1_EE3endEv
_ZNKSt6vectorIS_IiSaIiEESaIS1_EE3endEv:
.LFB2621:
	pushq	%rbp
	.seh_pushreg	%rbp
	movq	%rsp, %rbp
	.seh_setframe	%rbp, 0
	subq	$48, %rsp
	.seh_stackalloc	48
	.seh_endprologue
	movq	%rcx, 16(%rbp)
	movq	16(%rbp), %rax
	movq	8(%rax), %rax
	movq	%rax, -8(%rbp)
	leaq	-8(%rbp), %rdx
	leaq	-16(%rbp), %rax
	movq	%rax, %rcx
	call	_ZN9__gnu_cxx17__normal_iteratorIPKSt6vectorIiSaIiEES1_IS3_SaIS3_EEEC1ERKS5_
	movq	-16(%rbp), %rax
	addq	$48, %rsp
	popq	%rbp
	ret
	.seh_endproc
	.section	.text$_ZSt22__uninitialized_copy_aIN9__gnu_cxx17__normal_iteratorIPKSt6vectorIiSaIiEES2_IS4_SaIS4_EEEEPS4_S4_ET0_T_SC_SB_RSaIT1_E,"x"
	.linkonce discard
	.globl	_ZSt22__uninitialized_copy_aIN9__gnu_cxx17__normal_iteratorIPKSt6vectorIiSaIiEES2_IS4_SaIS4_EEEEPS4_S4_ET0_T_SC_SB_RSaIT1_E
	.def	_ZSt22__uninitialized_copy_aIN9__gnu_cxx17__normal_iteratorIPKSt6vectorIiSaIiEES2_IS4_SaIS4_EEEEPS4_S4_ET0_T_SC_SB_RSaIT1_E;	.scl	2;	.type	32;	.endef
	.seh_proc	_ZSt22__uninitialized_copy_aIN9__gnu_cxx17__normal_iteratorIPKSt6vectorIiSaIiEES2_IS4_SaIS4_EEEEPS4_S4_ET0_T_SC_SB_RSaIT1_E
_ZSt22__uninitialized_copy_aIN9__gnu_cxx17__normal_iteratorIPKSt6vectorIiSaIiEES2_IS4_SaIS4_EEEEPS4_S4_ET0_T_SC_SB_RSaIT1_E:
.LFB2622:
	pushq	%rbp
	.seh_pushreg	%rbp
	movq	%rsp, %rbp
	.seh_setframe	%rbp, 0
	subq	$32, %rsp
	.seh_stackalloc	32
	.seh_endprologue
	movq	%rcx, 16(%rbp)
	movq	%rdx, 24(%rbp)
	movq	%r8, 32(%rbp)
	movq	%r9, 40(%rbp)
	movq	32(%rbp), %rdx
	movq	24(%rbp), %rax
	movq	%rdx, %r8
	movq	%rax, %rdx
	movq	16(%rbp), %rcx
	call	_ZSt18uninitialized_copyIN9__gnu_cxx17__normal_iteratorIPKSt6vectorIiSaIiEES2_IS4_SaIS4_EEEEPS4_ET0_T_SC_SB_
	addq	$32, %rsp
	popq	%rbp
	ret
	.seh_endproc
	.section	.text$_ZNKSt10_List_baseIiSaIiEE13_M_node_countEv,"x"
	.linkonce discard
	.align 2
	.globl	_ZNKSt10_List_baseIiSaIiEE13_M_node_countEv
	.def	_ZNKSt10_List_baseIiSaIiEE13_M_node_countEv;	.scl	2;	.type	32;	.endef
	.seh_proc	_ZNKSt10_List_baseIiSaIiEE13_M_node_countEv
_ZNKSt10_List_baseIiSaIiEE13_M_node_countEv:
.LFB2623:
	pushq	%rbp
	.seh_pushreg	%rbp
	movq	%rsp, %rbp
	.seh_setframe	%rbp, 0
	subq	$32, %rsp
	.seh_stackalloc	32
	.seh_endprologue
	movq	%rcx, 16(%rbp)
	movq	16(%rbp), %rax
	movq	%rax, %rcx
	call	_ZSt11__addressofIKNSt8__detail15_List_node_baseEEPT_RS3_
	movq	%rax, %rdx
	movq	16(%rbp), %rax
	movq	(%rax), %rax
	movq	%rax, %rcx
	call	_ZNSt10_List_baseIiSaIiEE11_S_distanceEPKNSt8__detail15_List_node_baseES5_
	addq	$32, %rsp
	popq	%rbp
	ret
	.seh_endproc
	.section	.text$_ZNSt10_List_baseIiSaIiEE7_M_initEv,"x"
	.linkonce discard
	.align 2
	.globl	_ZNSt10_List_baseIiSaIiEE7_M_initEv
	.def	_ZNSt10_List_baseIiSaIiEE7_M_initEv;	.scl	2;	.type	32;	.endef
	.seh_proc	_ZNSt10_List_baseIiSaIiEE7_M_initEv
_ZNSt10_List_baseIiSaIiEE7_M_initEv:
.LFB2624:
	pushq	%rbp
	.seh_pushreg	%rbp
	movq	%rsp, %rbp
	.seh_setframe	%rbp, 0
	subq	$32, %rsp
	.seh_stackalloc	32
	.seh_endprologue
	movq	%rcx, 16(%rbp)
	movq	16(%rbp), %rdx
	movq	16(%rbp), %rax
	movq	%rdx, (%rax)
	movq	16(%rbp), %rdx
	movq	16(%rbp), %rax
	movq	%rdx, 8(%rax)
	movl	$0, %edx
	movq	16(%rbp), %rcx
	call	_ZNSt10_List_baseIiSaIiEE11_M_set_sizeEm
	nop
	addq	$32, %rsp
	popq	%rbp
	ret
	.seh_endproc
	.section	.text$_ZNSt4listIiSaIiEE3endEv,"x"
	.linkonce discard
	.align 2
	.globl	_ZNSt4listIiSaIiEE3endEv
	.def	_ZNSt4listIiSaIiEE3endEv;	.scl	2;	.type	32;	.endef
	.seh_proc	_ZNSt4listIiSaIiEE3endEv
_ZNSt4listIiSaIiEE3endEv:
.LFB2625:
	pushq	%rbp
	.seh_pushreg	%rbp
	movq	%rsp, %rbp
	.seh_setframe	%rbp, 0
	subq	$48, %rsp
	.seh_stackalloc	48
	.seh_endprologue
	movq	%rcx, 16(%rbp)
	movq	16(%rbp), %rdx
	leaq	-8(%rbp), %rax
	movq	%rax, %rcx
	call	_ZNSt14_List_iteratorIiEC1EPNSt8__detail15_List_node_baseE
	movq	-8(%rbp), %rax
	addq	$48, %rsp
	popq	%rbp
	ret
	.seh_endproc
	.section	.text$_ZNSt14_List_iteratorIiEmmEv,"x"
	.linkonce discard
	.align 2
	.globl	_ZNSt14_List_iteratorIiEmmEv
	.def	_ZNSt14_List_iteratorIiEmmEv;	.scl	2;	.type	32;	.endef
	.seh_proc	_ZNSt14_List_iteratorIiEmmEv
_ZNSt14_List_iteratorIiEmmEv:
.LFB2626:
	pushq	%rbp
	.seh_pushreg	%rbp
	movq	%rsp, %rbp
	.seh_setframe	%rbp, 0
	.seh_endprologue
	movq	%rcx, 16(%rbp)
	movq	16(%rbp), %rax
	movq	(%rax), %rax
	movq	8(%rax), %rdx
	movq	16(%rbp), %rax
	movq	%rdx, (%rax)
	movq	16(%rbp), %rax
	popq	%rbp
	ret
	.seh_endproc
	.section	.text$_ZNKSt14_List_iteratorIiEdeEv,"x"
	.linkonce discard
	.align 2
	.globl	_ZNKSt14_List_iteratorIiEdeEv
	.def	_ZNKSt14_List_iteratorIiEdeEv;	.scl	2;	.type	32;	.endef
	.seh_proc	_ZNKSt14_List_iteratorIiEdeEv
_ZNKSt14_List_iteratorIiEdeEv:
.LFB2627:
	pushq	%rbp
	.seh_pushreg	%rbp
	movq	%rsp, %rbp
	.seh_setframe	%rbp, 0
	subq	$32, %rsp
	.seh_stackalloc	32
	.seh_endprologue
	movq	%rcx, 16(%rbp)
	movq	16(%rbp), %rax
	movq	(%rax), %rax
	movq	%rax, %rcx
	call	_ZNSt10_List_nodeIiE9_M_valptrEv
	addq	$32, %rsp
	popq	%rbp
	ret
	.seh_endproc
	.section	.text$_ZNSt4listIiSaIiEE8_M_eraseESt14_List_iteratorIiE,"x"
	.linkonce discard
	.align 2
	.globl	_ZNSt4listIiSaIiEE8_M_eraseESt14_List_iteratorIiE
	.def	_ZNSt4listIiSaIiEE8_M_eraseESt14_List_iteratorIiE;	.scl	2;	.type	32;	.endef
	.seh_proc	_ZNSt4listIiSaIiEE8_M_eraseESt14_List_iteratorIiE
_ZNSt4listIiSaIiEE8_M_eraseESt14_List_iteratorIiE:
.LFB2628:
	pushq	%rbp
	.seh_pushreg	%rbp
	pushq	%rbx
	.seh_pushreg	%rbx
	subq	$56, %rsp
	.seh_stackalloc	56
	leaq	128(%rsp), %rbp
	.seh_setframe	%rbp, 128
	.seh_endprologue
	movq	%rcx, -48(%rbp)
	movq	%rdx, -40(%rbp)
	movq	-48(%rbp), %rax
	movl	$1, %edx
	movq	%rax, %rcx
	call	_ZNSt10_List_baseIiSaIiEE11_M_dec_sizeEm
	movq	-40(%rbp), %rax
	movq	%rax, %rcx
	call	_ZNSt8__detail15_List_node_base9_M_unhookEv
	movq	-40(%rbp), %rax
	movq	%rax, -88(%rbp)
	movq	-88(%rbp), %rax
	movq	%rax, %rcx
	call	_ZNSt10_List_nodeIiE9_M_valptrEv
	movq	%rax, %rbx
	movq	-48(%rbp), %rax
	movq	%rax, %rcx
	call	_ZNSt10_List_baseIiSaIiEE21_M_get_Node_allocatorEv
	movq	%rbx, %rdx
	movq	%rax, %rcx
	call	_ZNSt16allocator_traitsISaISt10_List_nodeIiEEE7destroyIiEEvRS2_PT_
	movq	-48(%rbp), %rax
	movq	-88(%rbp), %rdx
	movq	%rax, %rcx
	call	_ZNSt10_List_baseIiSaIiEE11_M_put_nodeEPSt10_List_nodeIiE
	nop
	addq	$56, %rsp
	popq	%rbx
	popq	%rbp
	ret
	.seh_handler	__gxx_personality_seh0, @unwind, @except
	.seh_handlerdata
.LLSDA2628:
	.byte	0xff
	.byte	0xff
	.byte	0x1
	.uleb128 .LLSDACSE2628-.LLSDACSB2628
.LLSDACSB2628:
.LLSDACSE2628:
	.section	.text$_ZNSt4listIiSaIiEE8_M_eraseESt14_List_iteratorIiE,"x"
	.linkonce discard
	.seh_endproc
	.section	.text$_ZNSt14_List_iteratorIiEC1EPNSt8__detail15_List_node_baseE,"x"
	.linkonce discard
	.align 2
	.globl	_ZNSt14_List_iteratorIiEC1EPNSt8__detail15_List_node_baseE
	.def	_ZNSt14_List_iteratorIiEC1EPNSt8__detail15_List_node_baseE;	.scl	2;	.type	32;	.endef
	.seh_proc	_ZNSt14_List_iteratorIiEC1EPNSt8__detail15_List_node_baseE
_ZNSt14_List_iteratorIiEC1EPNSt8__detail15_List_node_baseE:
.LFB2631:
	pushq	%rbp
	.seh_pushreg	%rbp
	movq	%rsp, %rbp
	.seh_setframe	%rbp, 0
	.seh_endprologue
	movq	%rcx, 16(%rbp)
	movq	%rdx, 24(%rbp)
	movq	16(%rbp), %rax
	movq	24(%rbp), %rdx
	movq	%rdx, (%rax)
	nop
	popq	%rbp
	ret
	.seh_endproc
	.section	.text$_ZNSt12_Vector_baseISt6vectorIiSaIiEESaIS2_EE12_Vector_implC1Ev,"x"
	.linkonce discard
	.align 2
	.globl	_ZNSt12_Vector_baseISt6vectorIiSaIiEESaIS2_EE12_Vector_implC1Ev
	.def	_ZNSt12_Vector_baseISt6vectorIiSaIiEESaIS2_EE12_Vector_implC1Ev;	.scl	2;	.type	32;	.endef
	.seh_proc	_ZNSt12_Vector_baseISt6vectorIiSaIiEESaIS2_EE12_Vector_implC1Ev
_ZNSt12_Vector_baseISt6vectorIiSaIiEESaIS2_EE12_Vector_implC1Ev:
.LFB2663:
	pushq	%rbp
	.seh_pushreg	%rbp
	movq	%rsp, %rbp
	.seh_setframe	%rbp, 0
	subq	$32, %rsp
	.seh_stackalloc	32
	.seh_endprologue
	movq	%rcx, 16(%rbp)
	movq	16(%rbp), %rcx
	call	_ZNSaISt6vectorIiSaIiEEEC2Ev
	movq	16(%rbp), %rax
	movq	$0, (%rax)
	movq	16(%rbp), %rax
	movq	$0, 8(%rax)
	movq	16(%rbp), %rax
	movq	$0, 16(%rax)
	nop
	addq	$32, %rsp
	popq	%rbp
	ret
	.seh_endproc
	.section	.text$_ZNSt12_Vector_baseISt6vectorIiSaIiEESaIS2_EE13_M_deallocateEPS2_m,"x"
	.linkonce discard
	.align 2
	.globl	_ZNSt12_Vector_baseISt6vectorIiSaIiEESaIS2_EE13_M_deallocateEPS2_m
	.def	_ZNSt12_Vector_baseISt6vectorIiSaIiEESaIS2_EE13_M_deallocateEPS2_m;	.scl	2;	.type	32;	.endef
	.seh_proc	_ZNSt12_Vector_baseISt6vectorIiSaIiEESaIS2_EE13_M_deallocateEPS2_m
_ZNSt12_Vector_baseISt6vectorIiSaIiEESaIS2_EE13_M_deallocateEPS2_m:
.LFB2664:
	pushq	%rbp
	.seh_pushreg	%rbp
	movq	%rsp, %rbp
	.seh_setframe	%rbp, 0
	subq	$32, %rsp
	.seh_stackalloc	32
	.seh_endprologue
	movq	%rcx, 16(%rbp)
	movq	%rdx, 24(%rbp)
	movq	%r8, 32(%rbp)
	cmpq	$0, 24(%rbp)
	je	.L214
	movq	16(%rbp), %rax
	movq	32(%rbp), %rcx
	movq	24(%rbp), %rdx
	movq	%rcx, %r8
	movq	%rax, %rcx
	call	_ZNSt16allocator_traitsISaISt6vectorIiSaIiEEEE10deallocateERS3_PS2_m
.L214:
	nop
	addq	$32, %rsp
	popq	%rbp
	ret
	.seh_endproc
	.section	.text$_ZSt8_DestroyIPSt6vectorIiSaIiEEEvT_S4_,"x"
	.linkonce discard
	.globl	_ZSt8_DestroyIPSt6vectorIiSaIiEEEvT_S4_
	.def	_ZSt8_DestroyIPSt6vectorIiSaIiEEEvT_S4_;	.scl	2;	.type	32;	.endef
	.seh_proc	_ZSt8_DestroyIPSt6vectorIiSaIiEEEvT_S4_
_ZSt8_DestroyIPSt6vectorIiSaIiEEEvT_S4_:
.LFB2665:
	pushq	%rbp
	.seh_pushreg	%rbp
	movq	%rsp, %rbp
	.seh_setframe	%rbp, 0
	subq	$32, %rsp
	.seh_stackalloc	32
	.seh_endprologue
	movq	%rcx, 16(%rbp)
	movq	%rdx, 24(%rbp)
	movq	24(%rbp), %rax
	movq	%rax, %rdx
	movq	16(%rbp), %rcx
	call	_ZNSt12_Destroy_auxILb0EE9__destroyIPSt6vectorIiSaIiEEEEvT_S6_
	nop
	addq	$32, %rsp
	popq	%rbp
	ret
	.seh_endproc
	.section	.text$_ZNSt12_Vector_baseIiSaIiEE12_Vector_implC1Ev,"x"
	.linkonce discard
	.align 2
	.globl	_ZNSt12_Vector_baseIiSaIiEE12_Vector_implC1Ev
	.def	_ZNSt12_Vector_baseIiSaIiEE12_Vector_implC1Ev;	.scl	2;	.type	32;	.endef
	.seh_proc	_ZNSt12_Vector_baseIiSaIiEE12_Vector_implC1Ev
_ZNSt12_Vector_baseIiSaIiEE12_Vector_implC1Ev:
.LFB2668:
	pushq	%rbp
	.seh_pushreg	%rbp
	movq	%rsp, %rbp
	.seh_setframe	%rbp, 0
	subq	$32, %rsp
	.seh_stackalloc	32
	.seh_endprologue
	movq	%rcx, 16(%rbp)
	movq	16(%rbp), %rcx
	call	_ZNSaIiEC2Ev
	movq	16(%rbp), %rax
	movq	$0, (%rax)
	movq	16(%rbp), %rax
	movq	$0, 8(%rax)
	movq	16(%rbp), %rax
	movq	$0, 16(%rax)
	nop
	addq	$32, %rsp
	popq	%rbp
	ret
	.seh_endproc
	.section	.text$_ZNSt12_Vector_baseIiSaIiEE13_M_deallocateEPim,"x"
	.linkonce discard
	.align 2
	.globl	_ZNSt12_Vector_baseIiSaIiEE13_M_deallocateEPim
	.def	_ZNSt12_Vector_baseIiSaIiEE13_M_deallocateEPim;	.scl	2;	.type	32;	.endef
	.seh_proc	_ZNSt12_Vector_baseIiSaIiEE13_M_deallocateEPim
_ZNSt12_Vector_baseIiSaIiEE13_M_deallocateEPim:
.LFB2669:
	pushq	%rbp
	.seh_pushreg	%rbp
	movq	%rsp, %rbp
	.seh_setframe	%rbp, 0
	subq	$32, %rsp
	.seh_stackalloc	32
	.seh_endprologue
	movq	%rcx, 16(%rbp)
	movq	%rdx, 24(%rbp)
	movq	%r8, 32(%rbp)
	cmpq	$0, 24(%rbp)
	je	.L219
	movq	16(%rbp), %rax
	movq	32(%rbp), %rcx
	movq	24(%rbp), %rdx
	movq	%rcx, %r8
	movq	%rax, %rcx
	call	_ZNSt16allocator_traitsISaIiEE10deallocateERS0_Pim
.L219:
	nop
	addq	$32, %rsp
	popq	%rbp
	ret
	.seh_endproc
	.section	.text$_ZSt8_DestroyIPiEvT_S1_,"x"
	.linkonce discard
	.globl	_ZSt8_DestroyIPiEvT_S1_
	.def	_ZSt8_DestroyIPiEvT_S1_;	.scl	2;	.type	32;	.endef
	.seh_proc	_ZSt8_DestroyIPiEvT_S1_
_ZSt8_DestroyIPiEvT_S1_:
.LFB2670:
	pushq	%rbp
	.seh_pushreg	%rbp
	movq	%rsp, %rbp
	.seh_setframe	%rbp, 0
	subq	$32, %rsp
	.seh_stackalloc	32
	.seh_endprologue
	movq	%rcx, 16(%rbp)
	movq	%rdx, 24(%rbp)
	movq	24(%rbp), %rax
	movq	%rax, %rdx
	movq	16(%rbp), %rcx
	call	_ZNSt12_Destroy_auxILb1EE9__destroyIPiEEvT_S3_
	nop
	addq	$32, %rsp
	popq	%rbp
	ret
	.seh_endproc
	.section	.text$_ZNSt12_Vector_baseIiSaIiEE12_Vector_implC1ERKS0_,"x"
	.linkonce discard
	.align 2
	.globl	_ZNSt12_Vector_baseIiSaIiEE12_Vector_implC1ERKS0_
	.def	_ZNSt12_Vector_baseIiSaIiEE12_Vector_implC1ERKS0_;	.scl	2;	.type	32;	.endef
	.seh_proc	_ZNSt12_Vector_baseIiSaIiEE12_Vector_implC1ERKS0_
_ZNSt12_Vector_baseIiSaIiEE12_Vector_implC1ERKS0_:
.LFB2678:
	pushq	%rbp
	.seh_pushreg	%rbp
	movq	%rsp, %rbp
	.seh_setframe	%rbp, 0
	subq	$32, %rsp
	.seh_stackalloc	32
	.seh_endprologue
	movq	%rcx, 16(%rbp)
	movq	%rdx, 24(%rbp)
	movq	24(%rbp), %rax
	movq	%rax, %rdx
	movq	16(%rbp), %rcx
	call	_ZNSaIiEC2ERKS_
	movq	16(%rbp), %rax
	movq	$0, (%rax)
	movq	16(%rbp), %rax
	movq	$0, 8(%rax)
	movq	16(%rbp), %rax
	movq	$0, 16(%rax)
	nop
	addq	$32, %rsp
	popq	%rbp
	ret
	.seh_endproc
	.section	.text$_ZNSt12_Vector_baseIiSaIiEE17_M_create_storageEm,"x"
	.linkonce discard
	.align 2
	.globl	_ZNSt12_Vector_baseIiSaIiEE17_M_create_storageEm
	.def	_ZNSt12_Vector_baseIiSaIiEE17_M_create_storageEm;	.scl	2;	.type	32;	.endef
	.seh_proc	_ZNSt12_Vector_baseIiSaIiEE17_M_create_storageEm
_ZNSt12_Vector_baseIiSaIiEE17_M_create_storageEm:
.LFB2679:
	pushq	%rbp
	.seh_pushreg	%rbp
	movq	%rsp, %rbp
	.seh_setframe	%rbp, 0
	subq	$32, %rsp
	.seh_stackalloc	32
	.seh_endprologue
	movq	%rcx, 16(%rbp)
	movq	%rdx, 24(%rbp)
	movq	24(%rbp), %rax
	movq	%rax, %rdx
	movq	16(%rbp), %rcx
	call	_ZNSt12_Vector_baseIiSaIiEE11_M_allocateEm
	movq	%rax, %rdx
	movq	16(%rbp), %rax
	movq	%rdx, (%rax)
	movq	16(%rbp), %rax
	movq	(%rax), %rdx
	movq	16(%rbp), %rax
	movq	%rdx, 8(%rax)
	movq	16(%rbp), %rax
	movq	(%rax), %rax
	movq	24(%rbp), %rdx
	salq	$2, %rdx
	addq	%rax, %rdx
	movq	16(%rbp), %rax
	movq	%rdx, 16(%rax)
	nop
	addq	$32, %rsp
	popq	%rbp
	ret
	.seh_endproc
	.section	.text$_ZSt24__uninitialized_fill_n_aIPimiiET_S1_T0_RKT1_RSaIT2_E,"x"
	.linkonce discard
	.globl	_ZSt24__uninitialized_fill_n_aIPimiiET_S1_T0_RKT1_RSaIT2_E
	.def	_ZSt24__uninitialized_fill_n_aIPimiiET_S1_T0_RKT1_RSaIT2_E;	.scl	2;	.type	32;	.endef
	.seh_proc	_ZSt24__uninitialized_fill_n_aIPimiiET_S1_T0_RKT1_RSaIT2_E
_ZSt24__uninitialized_fill_n_aIPimiiET_S1_T0_RKT1_RSaIT2_E:
.LFB2680:
	pushq	%rbp
	.seh_pushreg	%rbp
	movq	%rsp, %rbp
	.seh_setframe	%rbp, 0
	subq	$32, %rsp
	.seh_stackalloc	32
	.seh_endprologue
	movq	%rcx, 16(%rbp)
	movq	%rdx, 24(%rbp)
	movq	%r8, 32(%rbp)
	movq	%r9, 40(%rbp)
	movq	32(%rbp), %rdx
	movq	24(%rbp), %rax
	movq	%rdx, %r8
	movq	%rax, %rdx
	movq	16(%rbp), %rcx
	call	_ZSt20uninitialized_fill_nIPimiET_S1_T0_RKT1_
	addq	$32, %rsp
	popq	%rbp
	ret
	.seh_endproc
	.section	.text$_ZNSt6vectorIS_IiSaIiEESaIS1_EE16_Temporary_valueC1IJRKS1_EEEPS3_DpOT_,"x"
	.linkonce discard
	.align 2
	.globl	_ZNSt6vectorIS_IiSaIiEESaIS1_EE16_Temporary_valueC1IJRKS1_EEEPS3_DpOT_
	.def	_ZNSt6vectorIS_IiSaIiEESaIS1_EE16_Temporary_valueC1IJRKS1_EEEPS3_DpOT_;	.scl	2;	.type	32;	.endef
	.seh_proc	_ZNSt6vectorIS_IiSaIiEESaIS1_EE16_Temporary_valueC1IJRKS1_EEEPS3_DpOT_
_ZNSt6vectorIS_IiSaIiEESaIS1_EE16_Temporary_valueC1IJRKS1_EEEPS3_DpOT_:
.LFB2683:
	pushq	%rbp
	.seh_pushreg	%rbp
	pushq	%rbx
	.seh_pushreg	%rbx
	subq	$40, %rsp
	.seh_stackalloc	40
	leaq	128(%rsp), %rbp
	.seh_setframe	%rbp, 128
	.seh_endprologue
	movq	%rcx, -64(%rbp)
	movq	%rdx, -56(%rbp)
	movq	%r8, -48(%rbp)
	movq	-64(%rbp), %rax
	movq	-56(%rbp), %rdx
	movq	%rdx, (%rax)
	movq	-48(%rbp), %rax
	movq	%rax, %rcx
	call	_ZSt7forwardIRKSt6vectorIiSaIiEEEOT_RNSt16remove_referenceIS5_E4typeE
	movq	%rax, %rbx
	movq	-64(%rbp), %rcx
	call	_ZNSt6vectorIS_IiSaIiEESaIS1_EE16_Temporary_value6_M_ptrEv
	movq	%rax, %rdx
	movq	-64(%rbp), %rax
	movq	(%rax), %rax
	movq	%rbx, %r8
	movq	%rax, %rcx
	call	_ZNSt16allocator_traitsISaISt6vectorIiSaIiEEEE9constructIS2_JRKS2_EEEvRS3_PT_DpOT0_
	nop
	addq	$40, %rsp
	popq	%rbx
	popq	%rbp
	ret
	.seh_endproc
	.section	.text$_ZNSt6vectorIS_IiSaIiEESaIS1_EE16_Temporary_valueD1Ev,"x"
	.linkonce discard
	.align 2
	.globl	_ZNSt6vectorIS_IiSaIiEESaIS1_EE16_Temporary_valueD1Ev
	.def	_ZNSt6vectorIS_IiSaIiEESaIS1_EE16_Temporary_valueD1Ev;	.scl	2;	.type	32;	.endef
	.seh_proc	_ZNSt6vectorIS_IiSaIiEESaIS1_EE16_Temporary_valueD1Ev
_ZNSt6vectorIS_IiSaIiEESaIS1_EE16_Temporary_valueD1Ev:
.LFB2686:
	pushq	%rbp
	.seh_pushreg	%rbp
	movq	%rsp, %rbp
	.seh_setframe	%rbp, 0
	subq	$32, %rsp
	.seh_stackalloc	32
	.seh_endprologue
	movq	%rcx, 16(%rbp)
	movq	16(%rbp), %rcx
	call	_ZNSt6vectorIS_IiSaIiEESaIS1_EE16_Temporary_value6_M_ptrEv
	movq	%rax, %rdx
	movq	16(%rbp), %rax
	movq	(%rax), %rax
	movq	%rax, %rcx
	call	_ZNSt16allocator_traitsISaISt6vectorIiSaIiEEEE7destroyIS2_EEvRS3_PT_
	nop
	addq	$32, %rsp
	popq	%rbp
	ret
	.seh_handler	__gxx_personality_seh0, @unwind, @except
	.seh_handlerdata
.LLSDA2686:
	.byte	0xff
	.byte	0xff
	.byte	0x1
	.uleb128 .LLSDACSE2686-.LLSDACSB2686
.LLSDACSB2686:
.LLSDACSE2686:
	.section	.text$_ZNSt6vectorIS_IiSaIiEESaIS1_EE16_Temporary_valueD1Ev,"x"
	.linkonce discard
	.seh_endproc
	.section	.text$_ZNSt6vectorIS_IiSaIiEESaIS1_EE16_Temporary_value6_M_valEv,"x"
	.linkonce discard
	.align 2
	.globl	_ZNSt6vectorIS_IiSaIiEESaIS1_EE16_Temporary_value6_M_valEv
	.def	_ZNSt6vectorIS_IiSaIiEESaIS1_EE16_Temporary_value6_M_valEv;	.scl	2;	.type	32;	.endef
	.seh_proc	_ZNSt6vectorIS_IiSaIiEESaIS1_EE16_Temporary_value6_M_valEv
_ZNSt6vectorIS_IiSaIiEESaIS1_EE16_Temporary_value6_M_valEv:
.LFB2687:
	pushq	%rbp
	.seh_pushreg	%rbp
	movq	%rsp, %rbp
	.seh_setframe	%rbp, 0
	.seh_endprologue
	movq	%rcx, 16(%rbp)
	movq	16(%rbp), %rax
	addq	$8, %rax
	popq	%rbp
	ret
	.seh_endproc
	.section	.text$_ZN9__gnu_cxxmiIPSt6vectorIiSaIiEES1_IS3_SaIS3_EEEENS_17__normal_iteratorIT_T0_E15difference_typeERKSA_SD_,"x"
	.linkonce discard
	.globl	_ZN9__gnu_cxxmiIPSt6vectorIiSaIiEES1_IS3_SaIS3_EEEENS_17__normal_iteratorIT_T0_E15difference_typeERKSA_SD_
	.def	_ZN9__gnu_cxxmiIPSt6vectorIiSaIiEES1_IS3_SaIS3_EEEENS_17__normal_iteratorIT_T0_E15difference_typeERKSA_SD_;	.scl	2;	.type	32;	.endef
	.seh_proc	_ZN9__gnu_cxxmiIPSt6vectorIiSaIiEES1_IS3_SaIS3_EEEENS_17__normal_iteratorIT_T0_E15difference_typeERKSA_SD_
_ZN9__gnu_cxxmiIPSt6vectorIiSaIiEES1_IS3_SaIS3_EEEENS_17__normal_iteratorIT_T0_E15difference_typeERKSA_SD_:
.LFB2688:
	pushq	%rbp
	.seh_pushreg	%rbp
	pushq	%rbx
	.seh_pushreg	%rbx
	subq	$40, %rsp
	.seh_stackalloc	40
	leaq	128(%rsp), %rbp
	.seh_setframe	%rbp, 128
	.seh_endprologue
	movq	%rcx, -64(%rbp)
	movq	%rdx, -56(%rbp)
	movq	-64(%rbp), %rcx
	call	_ZNK9__gnu_cxx17__normal_iteratorIPSt6vectorIiSaIiEES1_IS3_SaIS3_EEE4baseEv
	movq	(%rax), %rax
	movq	%rax, %rbx
	movq	-56(%rbp), %rax
	movq	%rax, %rcx
	call	_ZNK9__gnu_cxx17__normal_iteratorIPSt6vectorIiSaIiEES1_IS3_SaIS3_EEE4baseEv
	movq	(%rax), %rax
	subq	%rax, %rbx
	movq	%rbx, %rax
	sarq	$3, %rax
	movq	%rax, %rdx
	movabsq	$-6148914691236517205, %rax
	imulq	%rdx, %rax
	addq	$40, %rsp
	popq	%rbx
	popq	%rbp
	ret
	.seh_endproc
	.section	.text$_ZSt22__uninitialized_move_aIPSt6vectorIiSaIiEES3_SaIS2_EET0_T_S6_S5_RT1_,"x"
	.linkonce discard
	.globl	_ZSt22__uninitialized_move_aIPSt6vectorIiSaIiEES3_SaIS2_EET0_T_S6_S5_RT1_
	.def	_ZSt22__uninitialized_move_aIPSt6vectorIiSaIiEES3_SaIS2_EET0_T_S6_S5_RT1_;	.scl	2;	.type	32;	.endef
	.seh_proc	_ZSt22__uninitialized_move_aIPSt6vectorIiSaIiEES3_SaIS2_EET0_T_S6_S5_RT1_
_ZSt22__uninitialized_move_aIPSt6vectorIiSaIiEES3_SaIS2_EET0_T_S6_S5_RT1_:
.LFB2689:
	pushq	%rbp
	.seh_pushreg	%rbp
	pushq	%rbx
	.seh_pushreg	%rbx
	subq	$40, %rsp
	.seh_stackalloc	40
	leaq	128(%rsp), %rbp
	.seh_setframe	%rbp, 128
	.seh_endprologue
	movq	%rcx, -64(%rbp)
	movq	%rdx, -56(%rbp)
	movq	%r8, -48(%rbp)
	movq	%r9, -40(%rbp)
	movq	-56(%rbp), %rax
	movq	%rax, %rcx
	call	_ZSt18make_move_iteratorIPSt6vectorIiSaIiEEESt13move_iteratorIT_ES5_
	movq	%rax, %rbx
	movq	-64(%rbp), %rcx
	call	_ZSt18make_move_iteratorIPSt6vectorIiSaIiEEESt13move_iteratorIT_ES5_
	movq	%rax, %rcx
	movq	-40(%rbp), %rdx
	movq	-48(%rbp), %rax
	movq	%rdx, %r9
	movq	%rax, %r8
	movq	%rbx, %rdx
	call	_ZSt22__uninitialized_copy_aISt13move_iteratorIPSt6vectorIiSaIiEEES4_S3_ET0_T_S7_S6_RSaIT1_E
	addq	$40, %rsp
	popq	%rbx
	popq	%rbp
	ret
	.seh_endproc
	.section	.text$_ZNK9__gnu_cxx17__normal_iteratorIPSt6vectorIiSaIiEES1_IS3_SaIS3_EEE4baseEv,"x"
	.linkonce discard
	.align 2
	.globl	_ZNK9__gnu_cxx17__normal_iteratorIPSt6vectorIiSaIiEES1_IS3_SaIS3_EEE4baseEv
	.def	_ZNK9__gnu_cxx17__normal_iteratorIPSt6vectorIiSaIiEES1_IS3_SaIS3_EEE4baseEv;	.scl	2;	.type	32;	.endef
	.seh_proc	_ZNK9__gnu_cxx17__normal_iteratorIPSt6vectorIiSaIiEES1_IS3_SaIS3_EEE4baseEv
_ZNK9__gnu_cxx17__normal_iteratorIPSt6vectorIiSaIiEES1_IS3_SaIS3_EEE4baseEv:
.LFB2690:
	pushq	%rbp
	.seh_pushreg	%rbp
	movq	%rsp, %rbp
	.seh_setframe	%rbp, 0
	.seh_endprologue
	movq	%rcx, 16(%rbp)
	movq	16(%rbp), %rax
	popq	%rbp
	ret
	.seh_endproc
	.section	.text$_ZSt13move_backwardIPSt6vectorIiSaIiEES3_ET0_T_S5_S4_,"x"
	.linkonce discard
	.globl	_ZSt13move_backwardIPSt6vectorIiSaIiEES3_ET0_T_S5_S4_
	.def	_ZSt13move_backwardIPSt6vectorIiSaIiEES3_ET0_T_S5_S4_;	.scl	2;	.type	32;	.endef
	.seh_proc	_ZSt13move_backwardIPSt6vectorIiSaIiEES3_ET0_T_S5_S4_
_ZSt13move_backwardIPSt6vectorIiSaIiEES3_ET0_T_S5_S4_:
.LFB2691:
	pushq	%rbp
	.seh_pushreg	%rbp
	pushq	%rbx
	.seh_pushreg	%rbx
	subq	$40, %rsp
	.seh_stackalloc	40
	leaq	128(%rsp), %rbp
	.seh_setframe	%rbp, 128
	.seh_endprologue
	movq	%rcx, -64(%rbp)
	movq	%rdx, -56(%rbp)
	movq	%r8, -48(%rbp)
	movq	-56(%rbp), %rax
	movq	%rax, %rcx
	call	_ZSt12__miter_baseIPSt6vectorIiSaIiEEET_S4_
	movq	%rax, %rbx
	movq	-64(%rbp), %rcx
	call	_ZSt12__miter_baseIPSt6vectorIiSaIiEEET_S4_
	movq	%rax, %rcx
	movq	-48(%rbp), %rax
	movq	%rax, %r8
	movq	%rbx, %rdx
	call	_ZSt23__copy_move_backward_a2ILb1EPSt6vectorIiSaIiEES3_ET1_T0_S5_S4_
	addq	$40, %rsp
	popq	%rbx
	popq	%rbp
	ret
	.seh_endproc
	.section	.text$_ZSt4fillIPSt6vectorIiSaIiEES2_EvT_S4_RKT0_,"x"
	.linkonce discard
	.globl	_ZSt4fillIPSt6vectorIiSaIiEES2_EvT_S4_RKT0_
	.def	_ZSt4fillIPSt6vectorIiSaIiEES2_EvT_S4_RKT0_;	.scl	2;	.type	32;	.endef
	.seh_proc	_ZSt4fillIPSt6vectorIiSaIiEES2_EvT_S4_RKT0_
_ZSt4fillIPSt6vectorIiSaIiEES2_EvT_S4_RKT0_:
.LFB2692:
	pushq	%rbp
	.seh_pushreg	%rbp
	pushq	%rbx
	.seh_pushreg	%rbx
	subq	$40, %rsp
	.seh_stackalloc	40
	leaq	128(%rsp), %rbp
	.seh_setframe	%rbp, 128
	.seh_endprologue
	movq	%rcx, -64(%rbp)
	movq	%rdx, -56(%rbp)
	movq	%r8, -48(%rbp)
	movq	-56(%rbp), %rax
	movq	%rax, %rcx
	call	_ZSt12__niter_baseIPSt6vectorIiSaIiEEET_S4_
	movq	%rax, %rbx
	movq	-64(%rbp), %rcx
	call	_ZSt12__niter_baseIPSt6vectorIiSaIiEEET_S4_
	movq	%rax, %rcx
	movq	-48(%rbp), %rax
	movq	%rax, %r8
	movq	%rbx, %rdx
	call	_ZSt8__fill_aIPSt6vectorIiSaIiEES2_EN9__gnu_cxx11__enable_ifIXntsrSt11__is_scalarIT0_E7__valueEvE6__typeET_SB_RKS7_
	nop
	addq	$40, %rsp
	popq	%rbx
	popq	%rbp
	ret
	.seh_endproc
	.section	.text$_ZSt24__uninitialized_fill_n_aIPSt6vectorIiSaIiEEmS2_S2_ET_S4_T0_RKT1_RSaIT2_E,"x"
	.linkonce discard
	.globl	_ZSt24__uninitialized_fill_n_aIPSt6vectorIiSaIiEEmS2_S2_ET_S4_T0_RKT1_RSaIT2_E
	.def	_ZSt24__uninitialized_fill_n_aIPSt6vectorIiSaIiEEmS2_S2_ET_S4_T0_RKT1_RSaIT2_E;	.scl	2;	.type	32;	.endef
	.seh_proc	_ZSt24__uninitialized_fill_n_aIPSt6vectorIiSaIiEEmS2_S2_ET_S4_T0_RKT1_RSaIT2_E
_ZSt24__uninitialized_fill_n_aIPSt6vectorIiSaIiEEmS2_S2_ET_S4_T0_RKT1_RSaIT2_E:
.LFB2693:
	pushq	%rbp
	.seh_pushreg	%rbp
	movq	%rsp, %rbp
	.seh_setframe	%rbp, 0
	subq	$32, %rsp
	.seh_stackalloc	32
	.seh_endprologue
	movq	%rcx, 16(%rbp)
	movq	%rdx, 24(%rbp)
	movq	%r8, 32(%rbp)
	movq	%r9, 40(%rbp)
	movq	32(%rbp), %rdx
	movq	24(%rbp), %rax
	movq	%rdx, %r8
	movq	%rax, %rdx
	movq	16(%rbp), %rcx
	call	_ZSt20uninitialized_fill_nIPSt6vectorIiSaIiEEmS2_ET_S4_T0_RKT1_
	addq	$32, %rsp
	popq	%rbp
	ret
	.seh_endproc
	.section	.text$_ZNKSt6vectorIS_IiSaIiEESaIS1_EE12_M_check_lenEmPKc,"x"
	.linkonce discard
	.align 2
	.globl	_ZNKSt6vectorIS_IiSaIiEESaIS1_EE12_M_check_lenEmPKc
	.def	_ZNKSt6vectorIS_IiSaIiEESaIS1_EE12_M_check_lenEmPKc;	.scl	2;	.type	32;	.endef
	.seh_proc	_ZNKSt6vectorIS_IiSaIiEESaIS1_EE12_M_check_lenEmPKc
_ZNKSt6vectorIS_IiSaIiEESaIS1_EE12_M_check_lenEmPKc:
.LFB2694:
	pushq	%rbp
	.seh_pushreg	%rbp
	pushq	%rbx
	.seh_pushreg	%rbx
	subq	$56, %rsp
	.seh_stackalloc	56
	leaq	128(%rsp), %rbp
	.seh_setframe	%rbp, 128
	.seh_endprologue
	movq	%rcx, -48(%rbp)
	movq	%rdx, -40(%rbp)
	movq	%r8, -32(%rbp)
	movq	-48(%rbp), %rcx
	call	_ZNKSt6vectorIS_IiSaIiEESaIS1_EE8max_sizeEv
	movq	%rax, %rbx
	movq	-48(%rbp), %rcx
	call	_ZNKSt6vectorIS_IiSaIiEESaIS1_EE4sizeEv
	subq	%rax, %rbx
	movq	%rbx, %rdx
	movq	-40(%rbp), %rax
	cmpq	%rax, %rdx
	setb	%al
	testb	%al, %al
	je	.L241
	movq	-32(%rbp), %rax
	movq	%rax, %rcx
	call	_ZSt20__throw_length_errorPKc
.L241:
	movq	-48(%rbp), %rcx
	call	_ZNKSt6vectorIS_IiSaIiEESaIS1_EE4sizeEv
	movq	%rax, %rbx
	movq	-48(%rbp), %rcx
	call	_ZNKSt6vectorIS_IiSaIiEESaIS1_EE4sizeEv
	movq	%rax, -96(%rbp)
	leaq	-40(%rbp), %rdx
	leaq	-96(%rbp), %rax
	movq	%rax, %rcx
	call	_ZSt3maxImERKT_S2_S2_
	movq	(%rax), %rax
	addq	%rbx, %rax
	movq	%rax, -88(%rbp)
	movq	-48(%rbp), %rcx
	call	_ZNKSt6vectorIS_IiSaIiEESaIS1_EE4sizeEv
	cmpq	%rax, -88(%rbp)
	jb	.L242
	movq	-48(%rbp), %rcx
	call	_ZNKSt6vectorIS_IiSaIiEESaIS1_EE8max_sizeEv
	cmpq	%rax, -88(%rbp)
	jbe	.L243
.L242:
	movq	-48(%rbp), %rcx
	call	_ZNKSt6vectorIS_IiSaIiEESaIS1_EE8max_sizeEv
	jmp	.L244
.L243:
	movq	-88(%rbp), %rax
.L244:
	addq	$56, %rsp
	popq	%rbx
	popq	%rbp
	ret
	.seh_endproc
	.section	.text$_ZNSt6vectorIS_IiSaIiEESaIS1_EE5beginEv,"x"
	.linkonce discard
	.align 2
	.globl	_ZNSt6vectorIS_IiSaIiEESaIS1_EE5beginEv
	.def	_ZNSt6vectorIS_IiSaIiEESaIS1_EE5beginEv;	.scl	2;	.type	32;	.endef
	.seh_proc	_ZNSt6vectorIS_IiSaIiEESaIS1_EE5beginEv
_ZNSt6vectorIS_IiSaIiEESaIS1_EE5beginEv:
.LFB2695:
	pushq	%rbp
	.seh_pushreg	%rbp
	movq	%rsp, %rbp
	.seh_setframe	%rbp, 0
	subq	$48, %rsp
	.seh_stackalloc	48
	.seh_endprologue
	movq	%rcx, 16(%rbp)
	movq	16(%rbp), %rdx
	leaq	-8(%rbp), %rax
	movq	%rax, %rcx
	call	_ZN9__gnu_cxx17__normal_iteratorIPSt6vectorIiSaIiEES1_IS3_SaIS3_EEEC1ERKS4_
	movq	-8(%rbp), %rax
	addq	$48, %rsp
	popq	%rbp
	ret
	.seh_endproc
	.section	.text$_ZNSt12_Vector_baseISt6vectorIiSaIiEESaIS2_EE11_M_allocateEm,"x"
	.linkonce discard
	.align 2
	.globl	_ZNSt12_Vector_baseISt6vectorIiSaIiEESaIS2_EE11_M_allocateEm
	.def	_ZNSt12_Vector_baseISt6vectorIiSaIiEESaIS2_EE11_M_allocateEm;	.scl	2;	.type	32;	.endef
	.seh_proc	_ZNSt12_Vector_baseISt6vectorIiSaIiEESaIS2_EE11_M_allocateEm
_ZNSt12_Vector_baseISt6vectorIiSaIiEESaIS2_EE11_M_allocateEm:
.LFB2696:
	pushq	%rbp
	.seh_pushreg	%rbp
	movq	%rsp, %rbp
	.seh_setframe	%rbp, 0
	subq	$32, %rsp
	.seh_stackalloc	32
	.seh_endprologue
	movq	%rcx, 16(%rbp)
	movq	%rdx, 24(%rbp)
	cmpq	$0, 24(%rbp)
	je	.L249
	movq	16(%rbp), %rax
	movq	24(%rbp), %rdx
	movq	%rax, %rcx
	call	_ZNSt16allocator_traitsISaISt6vectorIiSaIiEEEE8allocateERS3_m
	jmp	.L251
.L249:
	movl	$0, %eax
.L251:
	addq	$32, %rsp
	popq	%rbp
	ret
	.seh_endproc
	.section	.text$_ZSt34__uninitialized_move_if_noexcept_aIPSt6vectorIiSaIiEES3_SaIS2_EET0_T_S6_S5_RT1_,"x"
	.linkonce discard
	.globl	_ZSt34__uninitialized_move_if_noexcept_aIPSt6vectorIiSaIiEES3_SaIS2_EET0_T_S6_S5_RT1_
	.def	_ZSt34__uninitialized_move_if_noexcept_aIPSt6vectorIiSaIiEES3_SaIS2_EET0_T_S6_S5_RT1_;	.scl	2;	.type	32;	.endef
	.seh_proc	_ZSt34__uninitialized_move_if_noexcept_aIPSt6vectorIiSaIiEES3_SaIS2_EET0_T_S6_S5_RT1_
_ZSt34__uninitialized_move_if_noexcept_aIPSt6vectorIiSaIiEES3_SaIS2_EET0_T_S6_S5_RT1_:
.LFB2697:
	pushq	%rbp
	.seh_pushreg	%rbp
	pushq	%rbx
	.seh_pushreg	%rbx
	subq	$40, %rsp
	.seh_stackalloc	40
	leaq	128(%rsp), %rbp
	.seh_setframe	%rbp, 128
	.seh_endprologue
	movq	%rcx, -64(%rbp)
	movq	%rdx, -56(%rbp)
	movq	%r8, -48(%rbp)
	movq	%r9, -40(%rbp)
	movq	-56(%rbp), %rax
	movq	%rax, %rcx
	call	_ZSt32__make_move_if_noexcept_iteratorISt6vectorIiSaIiEESt13move_iteratorIPS2_EET0_PT_
	movq	%rax, %rbx
	movq	-64(%rbp), %rcx
	call	_ZSt32__make_move_if_noexcept_iteratorISt6vectorIiSaIiEESt13move_iteratorIPS2_EET0_PT_
	movq	%rax, %rcx
	movq	-40(%rbp), %rdx
	movq	-48(%rbp), %rax
	movq	%rdx, %r9
	movq	%rax, %r8
	movq	%rbx, %rdx
	call	_ZSt22__uninitialized_copy_aISt13move_iteratorIPSt6vectorIiSaIiEEES4_S3_ET0_T_S7_S6_RSaIT1_E
	addq	$40, %rsp
	popq	%rbx
	popq	%rbp
	ret
	.seh_endproc
	.section	.text$_ZN9__gnu_cxx17__normal_iteratorIPSt6vectorIiSaIiEES1_IS3_SaIS3_EEEC1ERKS4_,"x"
	.linkonce discard
	.align 2
	.globl	_ZN9__gnu_cxx17__normal_iteratorIPSt6vectorIiSaIiEES1_IS3_SaIS3_EEEC1ERKS4_
	.def	_ZN9__gnu_cxx17__normal_iteratorIPSt6vectorIiSaIiEES1_IS3_SaIS3_EEEC1ERKS4_;	.scl	2;	.type	32;	.endef
	.seh_proc	_ZN9__gnu_cxx17__normal_iteratorIPSt6vectorIiSaIiEES1_IS3_SaIS3_EEEC1ERKS4_
_ZN9__gnu_cxx17__normal_iteratorIPSt6vectorIiSaIiEES1_IS3_SaIS3_EEEC1ERKS4_:
.LFB2700:
	pushq	%rbp
	.seh_pushreg	%rbp
	movq	%rsp, %rbp
	.seh_setframe	%rbp, 0
	.seh_endprologue
	movq	%rcx, 16(%rbp)
	movq	%rdx, 24(%rbp)
	movq	24(%rbp), %rax
	movq	(%rax), %rdx
	movq	16(%rbp), %rax
	movq	%rdx, (%rax)
	nop
	popq	%rbp
	ret
	.seh_endproc
	.section	.text$_ZNSt6vectorIiSaIiEE16_Temporary_valueC1IJRKiEEEPS1_DpOT_,"x"
	.linkonce discard
	.align 2
	.globl	_ZNSt6vectorIiSaIiEE16_Temporary_valueC1IJRKiEEEPS1_DpOT_
	.def	_ZNSt6vectorIiSaIiEE16_Temporary_valueC1IJRKiEEEPS1_DpOT_;	.scl	2;	.type	32;	.endef
	.seh_proc	_ZNSt6vectorIiSaIiEE16_Temporary_valueC1IJRKiEEEPS1_DpOT_
_ZNSt6vectorIiSaIiEE16_Temporary_valueC1IJRKiEEEPS1_DpOT_:
.LFB2704:
	pushq	%rbp
	.seh_pushreg	%rbp
	pushq	%rbx
	.seh_pushreg	%rbx
	subq	$40, %rsp
	.seh_stackalloc	40
	leaq	128(%rsp), %rbp
	.seh_setframe	%rbp, 128
	.seh_endprologue
	movq	%rcx, -64(%rbp)
	movq	%rdx, -56(%rbp)
	movq	%r8, -48(%rbp)
	movq	-64(%rbp), %rax
	movq	-56(%rbp), %rdx
	movq	%rdx, (%rax)
	movq	-48(%rbp), %rax
	movq	%rax, %rcx
	call	_ZSt7forwardIRKiEOT_RNSt16remove_referenceIS2_E4typeE
	movq	%rax, %rbx
	movq	-64(%rbp), %rcx
	call	_ZNSt6vectorIiSaIiEE16_Temporary_value6_M_ptrEv
	movq	%rax, %rdx
	movq	-64(%rbp), %rax
	movq	(%rax), %rax
	movq	%rbx, %r8
	movq	%rax, %rcx
	call	_ZNSt16allocator_traitsISaIiEE9constructIiJRKiEEEvRS0_PT_DpOT0_
	nop
	addq	$40, %rsp
	popq	%rbx
	popq	%rbp
	ret
	.seh_endproc
	.section	.text$_ZNSt6vectorIiSaIiEE16_Temporary_valueD1Ev,"x"
	.linkonce discard
	.align 2
	.globl	_ZNSt6vectorIiSaIiEE16_Temporary_valueD1Ev
	.def	_ZNSt6vectorIiSaIiEE16_Temporary_valueD1Ev;	.scl	2;	.type	32;	.endef
	.seh_proc	_ZNSt6vectorIiSaIiEE16_Temporary_valueD1Ev
_ZNSt6vectorIiSaIiEE16_Temporary_valueD1Ev:
.LFB2707:
	pushq	%rbp
	.seh_pushreg	%rbp
	movq	%rsp, %rbp
	.seh_setframe	%rbp, 0
	subq	$32, %rsp
	.seh_stackalloc	32
	.seh_endprologue
	movq	%rcx, 16(%rbp)
	movq	16(%rbp), %rcx
	call	_ZNSt6vectorIiSaIiEE16_Temporary_value6_M_ptrEv
	movq	%rax, %rdx
	movq	16(%rbp), %rax
	movq	(%rax), %rax
	movq	%rax, %rcx
	call	_ZNSt16allocator_traitsISaIiEE7destroyIiEEvRS0_PT_
	nop
	addq	$32, %rsp
	popq	%rbp
	ret
	.seh_handler	__gxx_personality_seh0, @unwind, @except
	.seh_handlerdata
.LLSDA2707:
	.byte	0xff
	.byte	0xff
	.byte	0x1
	.uleb128 .LLSDACSE2707-.LLSDACSB2707
.LLSDACSB2707:
.LLSDACSE2707:
	.section	.text$_ZNSt6vectorIiSaIiEE16_Temporary_valueD1Ev,"x"
	.linkonce discard
	.seh_endproc
	.section	.text$_ZNSt6vectorIiSaIiEE16_Temporary_value6_M_valEv,"x"
	.linkonce discard
	.align 2
	.globl	_ZNSt6vectorIiSaIiEE16_Temporary_value6_M_valEv
	.def	_ZNSt6vectorIiSaIiEE16_Temporary_value6_M_valEv;	.scl	2;	.type	32;	.endef
	.seh_proc	_ZNSt6vectorIiSaIiEE16_Temporary_value6_M_valEv
_ZNSt6vectorIiSaIiEE16_Temporary_value6_M_valEv:
.LFB2708:
	pushq	%rbp
	.seh_pushreg	%rbp
	movq	%rsp, %rbp
	.seh_setframe	%rbp, 0
	.seh_endprologue
	movq	%rcx, 16(%rbp)
	movq	16(%rbp), %rax
	addq	$8, %rax
	popq	%rbp
	ret
	.seh_endproc
	.section	.text$_ZN9__gnu_cxxmiIPiSt6vectorIiSaIiEEEENS_17__normal_iteratorIT_T0_E15difference_typeERKS8_SB_,"x"
	.linkonce discard
	.globl	_ZN9__gnu_cxxmiIPiSt6vectorIiSaIiEEEENS_17__normal_iteratorIT_T0_E15difference_typeERKS8_SB_
	.def	_ZN9__gnu_cxxmiIPiSt6vectorIiSaIiEEEENS_17__normal_iteratorIT_T0_E15difference_typeERKS8_SB_;	.scl	2;	.type	32;	.endef
	.seh_proc	_ZN9__gnu_cxxmiIPiSt6vectorIiSaIiEEEENS_17__normal_iteratorIT_T0_E15difference_typeERKS8_SB_
_ZN9__gnu_cxxmiIPiSt6vectorIiSaIiEEEENS_17__normal_iteratorIT_T0_E15difference_typeERKS8_SB_:
.LFB2709:
	pushq	%rbp
	.seh_pushreg	%rbp
	pushq	%rbx
	.seh_pushreg	%rbx
	subq	$40, %rsp
	.seh_stackalloc	40
	leaq	128(%rsp), %rbp
	.seh_setframe	%rbp, 128
	.seh_endprologue
	movq	%rcx, -64(%rbp)
	movq	%rdx, -56(%rbp)
	movq	-64(%rbp), %rcx
	call	_ZNK9__gnu_cxx17__normal_iteratorIPiSt6vectorIiSaIiEEE4baseEv
	movq	(%rax), %rax
	movq	%rax, %rbx
	movq	-56(%rbp), %rax
	movq	%rax, %rcx
	call	_ZNK9__gnu_cxx17__normal_iteratorIPiSt6vectorIiSaIiEEE4baseEv
	movq	(%rax), %rax
	subq	%rax, %rbx
	movq	%rbx, %rax
	sarq	$2, %rax
	addq	$40, %rsp
	popq	%rbx
	popq	%rbp
	ret
	.seh_endproc
	.section	.text$_ZSt22__uninitialized_move_aIPiS0_SaIiEET0_T_S3_S2_RT1_,"x"
	.linkonce discard
	.globl	_ZSt22__uninitialized_move_aIPiS0_SaIiEET0_T_S3_S2_RT1_
	.def	_ZSt22__uninitialized_move_aIPiS0_SaIiEET0_T_S3_S2_RT1_;	.scl	2;	.type	32;	.endef
	.seh_proc	_ZSt22__uninitialized_move_aIPiS0_SaIiEET0_T_S3_S2_RT1_
_ZSt22__uninitialized_move_aIPiS0_SaIiEET0_T_S3_S2_RT1_:
.LFB2710:
	pushq	%rbp
	.seh_pushreg	%rbp
	pushq	%rbx
	.seh_pushreg	%rbx
	subq	$40, %rsp
	.seh_stackalloc	40
	leaq	128(%rsp), %rbp
	.seh_setframe	%rbp, 128
	.seh_endprologue
	movq	%rcx, -64(%rbp)
	movq	%rdx, -56(%rbp)
	movq	%r8, -48(%rbp)
	movq	%r9, -40(%rbp)
	movq	-56(%rbp), %rax
	movq	%rax, %rcx
	call	_ZSt18make_move_iteratorIPiESt13move_iteratorIT_ES2_
	movq	%rax, %rbx
	movq	-64(%rbp), %rcx
	call	_ZSt18make_move_iteratorIPiESt13move_iteratorIT_ES2_
	movq	%rax, %rcx
	movq	-40(%rbp), %rdx
	movq	-48(%rbp), %rax
	movq	%rdx, %r9
	movq	%rax, %r8
	movq	%rbx, %rdx
	call	_ZSt22__uninitialized_copy_aISt13move_iteratorIPiES1_iET0_T_S4_S3_RSaIT1_E
	addq	$40, %rsp
	popq	%rbx
	popq	%rbp
	ret
	.seh_endproc
	.section	.text$_ZNK9__gnu_cxx17__normal_iteratorIPiSt6vectorIiSaIiEEE4baseEv,"x"
	.linkonce discard
	.align 2
	.globl	_ZNK9__gnu_cxx17__normal_iteratorIPiSt6vectorIiSaIiEEE4baseEv
	.def	_ZNK9__gnu_cxx17__normal_iteratorIPiSt6vectorIiSaIiEEE4baseEv;	.scl	2;	.type	32;	.endef
	.seh_proc	_ZNK9__gnu_cxx17__normal_iteratorIPiSt6vectorIiSaIiEEE4baseEv
_ZNK9__gnu_cxx17__normal_iteratorIPiSt6vectorIiSaIiEEE4baseEv:
.LFB2711:
	pushq	%rbp
	.seh_pushreg	%rbp
	movq	%rsp, %rbp
	.seh_setframe	%rbp, 0
	.seh_endprologue
	movq	%rcx, 16(%rbp)
	movq	16(%rbp), %rax
	popq	%rbp
	ret
	.seh_endproc
	.section	.text$_ZSt13move_backwardIPiS0_ET0_T_S2_S1_,"x"
	.linkonce discard
	.globl	_ZSt13move_backwardIPiS0_ET0_T_S2_S1_
	.def	_ZSt13move_backwardIPiS0_ET0_T_S2_S1_;	.scl	2;	.type	32;	.endef
	.seh_proc	_ZSt13move_backwardIPiS0_ET0_T_S2_S1_
_ZSt13move_backwardIPiS0_ET0_T_S2_S1_:
.LFB2712:
	pushq	%rbp
	.seh_pushreg	%rbp
	pushq	%rbx
	.seh_pushreg	%rbx
	subq	$40, %rsp
	.seh_stackalloc	40
	leaq	128(%rsp), %rbp
	.seh_setframe	%rbp, 128
	.seh_endprologue
	movq	%rcx, -64(%rbp)
	movq	%rdx, -56(%rbp)
	movq	%r8, -48(%rbp)
	movq	-56(%rbp), %rax
	movq	%rax, %rcx
	call	_ZSt12__miter_baseIPiET_S1_
	movq	%rax, %rbx
	movq	-64(%rbp), %rcx
	call	_ZSt12__miter_baseIPiET_S1_
	movq	%rax, %rcx
	movq	-48(%rbp), %rax
	movq	%rax, %r8
	movq	%rbx, %rdx
	call	_ZSt23__copy_move_backward_a2ILb1EPiS0_ET1_T0_S2_S1_
	addq	$40, %rsp
	popq	%rbx
	popq	%rbp
	ret
	.seh_endproc
	.section	.text$_ZSt4fillIPiiEvT_S1_RKT0_,"x"
	.linkonce discard
	.globl	_ZSt4fillIPiiEvT_S1_RKT0_
	.def	_ZSt4fillIPiiEvT_S1_RKT0_;	.scl	2;	.type	32;	.endef
	.seh_proc	_ZSt4fillIPiiEvT_S1_RKT0_
_ZSt4fillIPiiEvT_S1_RKT0_:
.LFB2713:
	pushq	%rbp
	.seh_pushreg	%rbp
	pushq	%rbx
	.seh_pushreg	%rbx
	subq	$40, %rsp
	.seh_stackalloc	40
	leaq	128(%rsp), %rbp
	.seh_setframe	%rbp, 128
	.seh_endprologue
	movq	%rcx, -64(%rbp)
	movq	%rdx, -56(%rbp)
	movq	%r8, -48(%rbp)
	movq	-56(%rbp), %rax
	movq	%rax, %rcx
	call	_ZSt12__niter_baseIPiET_S1_
	movq	%rax, %rbx
	movq	-64(%rbp), %rcx
	call	_ZSt12__niter_baseIPiET_S1_
	movq	%rax, %rcx
	movq	-48(%rbp), %rax
	movq	%rax, %r8
	movq	%rbx, %rdx
	call	_ZSt8__fill_aIPiiEN9__gnu_cxx11__enable_ifIXsrSt11__is_scalarIT0_E7__valueEvE6__typeET_S8_RKS4_
	nop
	addq	$40, %rsp
	popq	%rbx
	popq	%rbp
	ret
	.seh_endproc
	.section	.text$_ZNKSt6vectorIiSaIiEE12_M_check_lenEmPKc,"x"
	.linkonce discard
	.align 2
	.globl	_ZNKSt6vectorIiSaIiEE12_M_check_lenEmPKc
	.def	_ZNKSt6vectorIiSaIiEE12_M_check_lenEmPKc;	.scl	2;	.type	32;	.endef
	.seh_proc	_ZNKSt6vectorIiSaIiEE12_M_check_lenEmPKc
_ZNKSt6vectorIiSaIiEE12_M_check_lenEmPKc:
.LFB2714:
	pushq	%rbp
	.seh_pushreg	%rbp
	pushq	%rbx
	.seh_pushreg	%rbx
	subq	$56, %rsp
	.seh_stackalloc	56
	leaq	128(%rsp), %rbp
	.seh_setframe	%rbp, 128
	.seh_endprologue
	movq	%rcx, -48(%rbp)
	movq	%rdx, -40(%rbp)
	movq	%r8, -32(%rbp)
	movq	-48(%rbp), %rcx
	call	_ZNKSt6vectorIiSaIiEE8max_sizeEv
	movq	%rax, %rbx
	movq	-48(%rbp), %rcx
	call	_ZNKSt6vectorIiSaIiEE4sizeEv
	subq	%rax, %rbx
	movq	%rbx, %rdx
	movq	-40(%rbp), %rax
	cmpq	%rax, %rdx
	setb	%al
	testb	%al, %al
	je	.L269
	movq	-32(%rbp), %rax
	movq	%rax, %rcx
	call	_ZSt20__throw_length_errorPKc
.L269:
	movq	-48(%rbp), %rcx
	call	_ZNKSt6vectorIiSaIiEE4sizeEv
	movq	%rax, %rbx
	movq	-48(%rbp), %rcx
	call	_ZNKSt6vectorIiSaIiEE4sizeEv
	movq	%rax, -96(%rbp)
	leaq	-40(%rbp), %rdx
	leaq	-96(%rbp), %rax
	movq	%rax, %rcx
	call	_ZSt3maxImERKT_S2_S2_
	movq	(%rax), %rax
	addq	%rbx, %rax
	movq	%rax, -88(%rbp)
	movq	-48(%rbp), %rcx
	call	_ZNKSt6vectorIiSaIiEE4sizeEv
	cmpq	%rax, -88(%rbp)
	jb	.L270
	movq	-48(%rbp), %rcx
	call	_ZNKSt6vectorIiSaIiEE8max_sizeEv
	cmpq	%rax, -88(%rbp)
	jbe	.L271
.L270:
	movq	-48(%rbp), %rcx
	call	_ZNKSt6vectorIiSaIiEE8max_sizeEv
	jmp	.L272
.L271:
	movq	-88(%rbp), %rax
.L272:
	addq	$56, %rsp
	popq	%rbx
	popq	%rbp
	ret
	.seh_endproc
	.section	.text$_ZNSt6vectorIiSaIiEE5beginEv,"x"
	.linkonce discard
	.align 2
	.globl	_ZNSt6vectorIiSaIiEE5beginEv
	.def	_ZNSt6vectorIiSaIiEE5beginEv;	.scl	2;	.type	32;	.endef
	.seh_proc	_ZNSt6vectorIiSaIiEE5beginEv
_ZNSt6vectorIiSaIiEE5beginEv:
.LFB2715:
	pushq	%rbp
	.seh_pushreg	%rbp
	movq	%rsp, %rbp
	.seh_setframe	%rbp, 0
	subq	$48, %rsp
	.seh_stackalloc	48
	.seh_endprologue
	movq	%rcx, 16(%rbp)
	movq	16(%rbp), %rdx
	leaq	-8(%rbp), %rax
	movq	%rax, %rcx
	call	_ZN9__gnu_cxx17__normal_iteratorIPiSt6vectorIiSaIiEEEC1ERKS1_
	movq	-8(%rbp), %rax
	addq	$48, %rsp
	popq	%rbp
	ret
	.seh_endproc
	.section	.text$_ZNSt12_Vector_baseIiSaIiEE11_M_allocateEm,"x"
	.linkonce discard
	.align 2
	.globl	_ZNSt12_Vector_baseIiSaIiEE11_M_allocateEm
	.def	_ZNSt12_Vector_baseIiSaIiEE11_M_allocateEm;	.scl	2;	.type	32;	.endef
	.seh_proc	_ZNSt12_Vector_baseIiSaIiEE11_M_allocateEm
_ZNSt12_Vector_baseIiSaIiEE11_M_allocateEm:
.LFB2716:
	pushq	%rbp
	.seh_pushreg	%rbp
	movq	%rsp, %rbp
	.seh_setframe	%rbp, 0
	subq	$32, %rsp
	.seh_stackalloc	32
	.seh_endprologue
	movq	%rcx, 16(%rbp)
	movq	%rdx, 24(%rbp)
	cmpq	$0, 24(%rbp)
	je	.L277
	movq	16(%rbp), %rax
	movq	24(%rbp), %rdx
	movq	%rax, %rcx
	call	_ZNSt16allocator_traitsISaIiEE8allocateERS0_m
	jmp	.L279
.L277:
	movl	$0, %eax
.L279:
	addq	$32, %rsp
	popq	%rbp
	ret
	.seh_endproc
	.section	.text$_ZSt34__uninitialized_move_if_noexcept_aIPiS0_SaIiEET0_T_S3_S2_RT1_,"x"
	.linkonce discard
	.globl	_ZSt34__uninitialized_move_if_noexcept_aIPiS0_SaIiEET0_T_S3_S2_RT1_
	.def	_ZSt34__uninitialized_move_if_noexcept_aIPiS0_SaIiEET0_T_S3_S2_RT1_;	.scl	2;	.type	32;	.endef
	.seh_proc	_ZSt34__uninitialized_move_if_noexcept_aIPiS0_SaIiEET0_T_S3_S2_RT1_
_ZSt34__uninitialized_move_if_noexcept_aIPiS0_SaIiEET0_T_S3_S2_RT1_:
.LFB2717:
	pushq	%rbp
	.seh_pushreg	%rbp
	pushq	%rbx
	.seh_pushreg	%rbx
	subq	$40, %rsp
	.seh_stackalloc	40
	leaq	128(%rsp), %rbp
	.seh_setframe	%rbp, 128
	.seh_endprologue
	movq	%rcx, -64(%rbp)
	movq	%rdx, -56(%rbp)
	movq	%r8, -48(%rbp)
	movq	%r9, -40(%rbp)
	movq	-56(%rbp), %rax
	movq	%rax, %rcx
	call	_ZSt32__make_move_if_noexcept_iteratorIiSt13move_iteratorIPiEET0_PT_
	movq	%rax, %rbx
	movq	-64(%rbp), %rcx
	call	_ZSt32__make_move_if_noexcept_iteratorIiSt13move_iteratorIPiEET0_PT_
	movq	%rax, %rcx
	movq	-40(%rbp), %rdx
	movq	-48(%rbp), %rax
	movq	%rdx, %r9
	movq	%rax, %r8
	movq	%rbx, %rdx
	call	_ZSt22__uninitialized_copy_aISt13move_iteratorIPiES1_iET0_T_S4_S3_RSaIT1_E
	addq	$40, %rsp
	popq	%rbx
	popq	%rbp
	ret
	.seh_endproc
	.section	.text$_ZN9__gnu_cxx17__normal_iteratorIPiSt6vectorIiSaIiEEEC1ERKS1_,"x"
	.linkonce discard
	.align 2
	.globl	_ZN9__gnu_cxx17__normal_iteratorIPiSt6vectorIiSaIiEEEC1ERKS1_
	.def	_ZN9__gnu_cxx17__normal_iteratorIPiSt6vectorIiSaIiEEEC1ERKS1_;	.scl	2;	.type	32;	.endef
	.seh_proc	_ZN9__gnu_cxx17__normal_iteratorIPiSt6vectorIiSaIiEEEC1ERKS1_
_ZN9__gnu_cxx17__normal_iteratorIPiSt6vectorIiSaIiEEEC1ERKS1_:
.LFB2720:
	pushq	%rbp
	.seh_pushreg	%rbp
	movq	%rsp, %rbp
	.seh_setframe	%rbp, 0
	.seh_endprologue
	movq	%rcx, 16(%rbp)
	movq	%rdx, 24(%rbp)
	movq	24(%rbp), %rax
	movq	(%rax), %rdx
	movq	16(%rbp), %rax
	movq	%rdx, (%rax)
	nop
	popq	%rbp
	ret
	.seh_endproc
	.section	.text$_ZNSt10_List_baseIiSaIiEE10_List_implC1Ev,"x"
	.linkonce discard
	.align 2
	.globl	_ZNSt10_List_baseIiSaIiEE10_List_implC1Ev
	.def	_ZNSt10_List_baseIiSaIiEE10_List_implC1Ev;	.scl	2;	.type	32;	.endef
	.seh_proc	_ZNSt10_List_baseIiSaIiEE10_List_implC1Ev
_ZNSt10_List_baseIiSaIiEE10_List_implC1Ev:
.LFB2723:
	pushq	%rbp
	.seh_pushreg	%rbp
	movq	%rsp, %rbp
	.seh_setframe	%rbp, 0
	subq	$32, %rsp
	.seh_stackalloc	32
	.seh_endprologue
	movq	%rcx, 16(%rbp)
	movq	16(%rbp), %rcx
	call	_ZNSaISt10_List_nodeIiEEC2Ev
	movq	16(%rbp), %rax
	movq	$0, (%rax)
	movq	16(%rbp), %rax
	movq	$0, 8(%rax)
	nop
	addq	$32, %rsp
	popq	%rbp
	ret
	.seh_endproc
	.section	.text$_ZN9__gnu_cxx13new_allocatorISt10_List_nodeIiEED2Ev,"x"
	.linkonce discard
	.align 2
	.globl	_ZN9__gnu_cxx13new_allocatorISt10_List_nodeIiEED2Ev
	.def	_ZN9__gnu_cxx13new_allocatorISt10_List_nodeIiEED2Ev;	.scl	2;	.type	32;	.endef
	.seh_proc	_ZN9__gnu_cxx13new_allocatorISt10_List_nodeIiEED2Ev
_ZN9__gnu_cxx13new_allocatorISt10_List_nodeIiEED2Ev:
.LFB2725:
	pushq	%rbp
	.seh_pushreg	%rbp
	movq	%rsp, %rbp
	.seh_setframe	%rbp, 0
	.seh_endprologue
	movq	%rcx, 16(%rbp)
	nop
	popq	%rbp
	ret
	.seh_endproc
	.section	.text$_ZNSt10_List_nodeIiE9_M_valptrEv,"x"
	.linkonce discard
	.align 2
	.globl	_ZNSt10_List_nodeIiE9_M_valptrEv
	.def	_ZNSt10_List_nodeIiE9_M_valptrEv;	.scl	2;	.type	32;	.endef
	.seh_proc	_ZNSt10_List_nodeIiE9_M_valptrEv
_ZNSt10_List_nodeIiE9_M_valptrEv:
.LFB2727:
	pushq	%rbp
	.seh_pushreg	%rbp
	movq	%rsp, %rbp
	.seh_setframe	%rbp, 0
	subq	$32, %rsp
	.seh_stackalloc	32
	.seh_endprologue
	movq	%rcx, 16(%rbp)
	movq	16(%rbp), %rax
	addq	$16, %rax
	movq	%rax, %rcx
	call	_ZN9__gnu_cxx16__aligned_membufIiE6_M_ptrEv
	addq	$32, %rsp
	popq	%rbp
	ret
	.seh_endproc
	.section	.text$_ZNSt10_List_baseIiSaIiEE21_M_get_Node_allocatorEv,"x"
	.linkonce discard
	.align 2
	.globl	_ZNSt10_List_baseIiSaIiEE21_M_get_Node_allocatorEv
	.def	_ZNSt10_List_baseIiSaIiEE21_M_get_Node_allocatorEv;	.scl	2;	.type	32;	.endef
	.seh_proc	_ZNSt10_List_baseIiSaIiEE21_M_get_Node_allocatorEv
_ZNSt10_List_baseIiSaIiEE21_M_get_Node_allocatorEv:
.LFB2728:
	pushq	%rbp
	.seh_pushreg	%rbp
	movq	%rsp, %rbp
	.seh_setframe	%rbp, 0
	.seh_endprologue
	movq	%rcx, 16(%rbp)
	movq	16(%rbp), %rax
	popq	%rbp
	ret
	.seh_endproc
	.section	.text$_ZNSt16allocator_traitsISaISt10_List_nodeIiEEE7destroyIiEEvRS2_PT_,"x"
	.linkonce discard
	.globl	_ZNSt16allocator_traitsISaISt10_List_nodeIiEEE7destroyIiEEvRS2_PT_
	.def	_ZNSt16allocator_traitsISaISt10_List_nodeIiEEE7destroyIiEEvRS2_PT_;	.scl	2;	.type	32;	.endef
	.seh_proc	_ZNSt16allocator_traitsISaISt10_List_nodeIiEEE7destroyIiEEvRS2_PT_
_ZNSt16allocator_traitsISaISt10_List_nodeIiEEE7destroyIiEEvRS2_PT_:
.LFB2729:
	pushq	%rbp
	.seh_pushreg	%rbp
	movq	%rsp, %rbp
	.seh_setframe	%rbp, 0
	subq	$32, %rsp
	.seh_stackalloc	32
	.seh_endprologue
	movq	%rcx, 16(%rbp)
	movq	%rdx, 24(%rbp)
	movq	24(%rbp), %rax
	movq	%rax, %rdx
	movq	16(%rbp), %rcx
	call	_ZN9__gnu_cxx13new_allocatorISt10_List_nodeIiEE7destroyIiEEvPT_
	nop
	addq	$32, %rsp
	popq	%rbp
	ret
	.seh_endproc
	.section	.text$_ZNSt10_List_baseIiSaIiEE11_M_put_nodeEPSt10_List_nodeIiE,"x"
	.linkonce discard
	.align 2
	.globl	_ZNSt10_List_baseIiSaIiEE11_M_put_nodeEPSt10_List_nodeIiE
	.def	_ZNSt10_List_baseIiSaIiEE11_M_put_nodeEPSt10_List_nodeIiE;	.scl	2;	.type	32;	.endef
	.seh_proc	_ZNSt10_List_baseIiSaIiEE11_M_put_nodeEPSt10_List_nodeIiE
_ZNSt10_List_baseIiSaIiEE11_M_put_nodeEPSt10_List_nodeIiE:
.LFB2730:
	pushq	%rbp
	.seh_pushreg	%rbp
	movq	%rsp, %rbp
	.seh_setframe	%rbp, 0
	subq	$32, %rsp
	.seh_stackalloc	32
	.seh_endprologue
	movq	%rcx, 16(%rbp)
	movq	%rdx, 24(%rbp)
	movq	16(%rbp), %rax
	movq	24(%rbp), %rdx
	movl	$1, %r8d
	movq	%rax, %rcx
	call	_ZNSt16allocator_traitsISaISt10_List_nodeIiEEE10deallocateERS2_PS1_m
	nop
	addq	$32, %rsp
	popq	%rbp
	ret
	.seh_handler	__gxx_personality_seh0, @unwind, @except
	.seh_handlerdata
.LLSDA2730:
	.byte	0xff
	.byte	0xff
	.byte	0x1
	.uleb128 .LLSDACSE2730-.LLSDACSB2730
.LLSDACSB2730:
.LLSDACSE2730:
	.section	.text$_ZNSt10_List_baseIiSaIiEE11_M_put_nodeEPSt10_List_nodeIiE,"x"
	.linkonce discard
	.seh_endproc
	.section	.text$_ZNSt16allocator_traitsISaIiEE37select_on_container_copy_constructionERKS0_,"x"
	.linkonce discard
	.globl	_ZNSt16allocator_traitsISaIiEE37select_on_container_copy_constructionERKS0_
	.def	_ZNSt16allocator_traitsISaIiEE37select_on_container_copy_constructionERKS0_;	.scl	2;	.type	32;	.endef
	.seh_proc	_ZNSt16allocator_traitsISaIiEE37select_on_container_copy_constructionERKS0_
_ZNSt16allocator_traitsISaIiEE37select_on_container_copy_constructionERKS0_:
.LFB2731:
	pushq	%rbp
	.seh_pushreg	%rbp
	movq	%rsp, %rbp
	.seh_setframe	%rbp, 0
	subq	$32, %rsp
	.seh_stackalloc	32
	.seh_endprologue
	movq	%rcx, 16(%rbp)
	movq	%rdx, 24(%rbp)
	movq	24(%rbp), %rax
	movq	%rax, %rdx
	movq	16(%rbp), %rcx
	call	_ZNSaIiEC1ERKS_
	movq	16(%rbp), %rax
	addq	$32, %rsp
	popq	%rbp
	ret
	.seh_endproc
	.section	.text$_ZNSaIiEC2ERKS_,"x"
	.linkonce discard
	.align 2
	.globl	_ZNSaIiEC2ERKS_
	.def	_ZNSaIiEC2ERKS_;	.scl	2;	.type	32;	.endef
	.seh_proc	_ZNSaIiEC2ERKS_
_ZNSaIiEC2ERKS_:
.LFB2733:
	pushq	%rbp
	.seh_pushreg	%rbp
	movq	%rsp, %rbp
	.seh_setframe	%rbp, 0
	subq	$32, %rsp
	.seh_stackalloc	32
	.seh_endprologue
	movq	%rcx, 16(%rbp)
	movq	%rdx, 24(%rbp)
	movq	24(%rbp), %rax
	movq	%rax, %rdx
	movq	16(%rbp), %rcx
	call	_ZN9__gnu_cxx13new_allocatorIiEC2ERKS1_
	nop
	addq	$32, %rsp
	popq	%rbp
	ret
	.seh_endproc
	.section	.text$_ZNSaIiEC1ERKS_,"x"
	.linkonce discard
	.align 2
	.globl	_ZNSaIiEC1ERKS_
	.def	_ZNSaIiEC1ERKS_;	.scl	2;	.type	32;	.endef
	.seh_proc	_ZNSaIiEC1ERKS_
_ZNSaIiEC1ERKS_:
.LFB2734:
	pushq	%rbp
	.seh_pushreg	%rbp
	movq	%rsp, %rbp
	.seh_setframe	%rbp, 0
	subq	$32, %rsp
	.seh_stackalloc	32
	.seh_endprologue
	movq	%rcx, 16(%rbp)
	movq	%rdx, 24(%rbp)
	movq	24(%rbp), %rax
	movq	%rax, %rdx
	movq	16(%rbp), %rcx
	call	_ZN9__gnu_cxx13new_allocatorIiEC2ERKS1_
	nop
	addq	$32, %rsp
	popq	%rbp
	ret
	.seh_endproc
	.section	.text$_ZN9__gnu_cxx17__normal_iteratorIPKiSt6vectorIiSaIiEEEC1ERKS2_,"x"
	.linkonce discard
	.align 2
	.globl	_ZN9__gnu_cxx17__normal_iteratorIPKiSt6vectorIiSaIiEEEC1ERKS2_
	.def	_ZN9__gnu_cxx17__normal_iteratorIPKiSt6vectorIiSaIiEEEC1ERKS2_;	.scl	2;	.type	32;	.endef
	.seh_proc	_ZN9__gnu_cxx17__normal_iteratorIPKiSt6vectorIiSaIiEEEC1ERKS2_
_ZN9__gnu_cxx17__normal_iteratorIPKiSt6vectorIiSaIiEEEC1ERKS2_:
.LFB2737:
	pushq	%rbp
	.seh_pushreg	%rbp
	movq	%rsp, %rbp
	.seh_setframe	%rbp, 0
	.seh_endprologue
	movq	%rcx, 16(%rbp)
	movq	%rdx, 24(%rbp)
	movq	24(%rbp), %rax
	movq	(%rax), %rdx
	movq	16(%rbp), %rax
	movq	%rdx, (%rax)
	nop
	popq	%rbp
	ret
	.seh_endproc
	.section	.text$_ZSt18uninitialized_copyIN9__gnu_cxx17__normal_iteratorIPKiSt6vectorIiSaIiEEEEPiET0_T_SA_S9_,"x"
	.linkonce discard
	.globl	_ZSt18uninitialized_copyIN9__gnu_cxx17__normal_iteratorIPKiSt6vectorIiSaIiEEEEPiET0_T_SA_S9_
	.def	_ZSt18uninitialized_copyIN9__gnu_cxx17__normal_iteratorIPKiSt6vectorIiSaIiEEEEPiET0_T_SA_S9_;	.scl	2;	.type	32;	.endef
	.seh_proc	_ZSt18uninitialized_copyIN9__gnu_cxx17__normal_iteratorIPKiSt6vectorIiSaIiEEEEPiET0_T_SA_S9_
_ZSt18uninitialized_copyIN9__gnu_cxx17__normal_iteratorIPKiSt6vectorIiSaIiEEEEPiET0_T_SA_S9_:
.LFB2738:
	pushq	%rbp
	.seh_pushreg	%rbp
	movq	%rsp, %rbp
	.seh_setframe	%rbp, 0
	subq	$48, %rsp
	.seh_stackalloc	48
	.seh_endprologue
	movq	%rcx, 16(%rbp)
	movq	%rdx, 24(%rbp)
	movq	%r8, 32(%rbp)
	movb	$1, -1(%rbp)
	movq	32(%rbp), %rdx
	movq	24(%rbp), %rax
	movq	%rdx, %r8
	movq	%rax, %rdx
	movq	16(%rbp), %rcx
	call	_ZNSt20__uninitialized_copyILb1EE13__uninit_copyIN9__gnu_cxx17__normal_iteratorIPKiSt6vectorIiSaIiEEEEPiEET0_T_SC_SB_
	addq	$48, %rsp
	popq	%rbp
	ret
	.seh_endproc
	.section	.text$_ZSt7forwardIiEOT_RNSt16remove_referenceIS0_E4typeE,"x"
	.linkonce discard
	.globl	_ZSt7forwardIiEOT_RNSt16remove_referenceIS0_E4typeE
	.def	_ZSt7forwardIiEOT_RNSt16remove_referenceIS0_E4typeE;	.scl	2;	.type	32;	.endef
	.seh_proc	_ZSt7forwardIiEOT_RNSt16remove_referenceIS0_E4typeE
_ZSt7forwardIiEOT_RNSt16remove_referenceIS0_E4typeE:
.LFB2739:
	pushq	%rbp
	.seh_pushreg	%rbp
	movq	%rsp, %rbp
	.seh_setframe	%rbp, 0
	.seh_endprologue
	movq	%rcx, 16(%rbp)
	movq	16(%rbp), %rax
	popq	%rbp
	ret
	.seh_endproc
	.section	.text$_ZNSt4listIiSaIiEE14_M_create_nodeIJiEEEPSt10_List_nodeIiEDpOT_,"x"
	.linkonce discard
	.align 2
	.globl	_ZNSt4listIiSaIiEE14_M_create_nodeIJiEEEPSt10_List_nodeIiEDpOT_
	.def	_ZNSt4listIiSaIiEE14_M_create_nodeIJiEEEPSt10_List_nodeIiEDpOT_;	.scl	2;	.type	32;	.endef
	.seh_proc	_ZNSt4listIiSaIiEE14_M_create_nodeIJiEEEPSt10_List_nodeIiEDpOT_
_ZNSt4listIiSaIiEE14_M_create_nodeIJiEEEPSt10_List_nodeIiEDpOT_:
.LFB2740:
	pushq	%rbp
	.seh_pushreg	%rbp
	pushq	%rbx
	.seh_pushreg	%rbx
	subq	$72, %rsp
	.seh_stackalloc	72
	leaq	128(%rsp), %rbp
	.seh_setframe	%rbp, 128
	.seh_endprologue
	movq	%rcx, -32(%rbp)
	movq	%rdx, -24(%rbp)
	movq	-32(%rbp), %rax
	movq	%rax, %rcx
.LEHB39:
	call	_ZNSt10_List_baseIiSaIiEE11_M_get_nodeEv
.LEHE39:
	movq	%rax, -72(%rbp)
	movq	-32(%rbp), %rax
	movq	%rax, %rcx
	call	_ZNSt10_List_baseIiSaIiEE21_M_get_Node_allocatorEv
	movq	%rax, -80(%rbp)
	movq	-72(%rbp), %rcx
	movq	-80(%rbp), %rdx
	leaq	-96(%rbp), %rax
	movq	%rcx, %r8
	movq	%rax, %rcx
	call	_ZNSt15__allocated_ptrISaISt10_List_nodeIiEEEC1ERS2_PS1_
	movq	-24(%rbp), %rax
	movq	%rax, %rcx
	call	_ZSt7forwardIiEOT_RNSt16remove_referenceIS0_E4typeE
	movq	%rax, %rbx
	movq	-72(%rbp), %rax
	movq	%rax, %rcx
	call	_ZNSt10_List_nodeIiE9_M_valptrEv
	movq	%rax, %rdx
	movq	-80(%rbp), %rax
	movq	%rbx, %r8
	movq	%rax, %rcx
.LEHB40:
	call	_ZNSt16allocator_traitsISaISt10_List_nodeIiEEE9constructIiJiEEEvRS2_PT_DpOT0_
.LEHE40:
	leaq	-96(%rbp), %rax
	movl	$0, %edx
	movq	%rax, %rcx
	call	_ZNSt15__allocated_ptrISaISt10_List_nodeIiEEEaSEDn
	movq	-72(%rbp), %rbx
	leaq	-96(%rbp), %rax
	movq	%rax, %rcx
	call	_ZNSt15__allocated_ptrISaISt10_List_nodeIiEEED1Ev
	movq	%rbx, %rax
	jmp	.L304
.L303:
	movq	%rax, %rbx
	leaq	-96(%rbp), %rax
	movq	%rax, %rcx
	call	_ZNSt15__allocated_ptrISaISt10_List_nodeIiEEED1Ev
	movq	%rbx, %rax
	movq	%rax, %rcx
.LEHB41:
	call	_Unwind_Resume
.LEHE41:
.L304:
	addq	$72, %rsp
	popq	%rbx
	popq	%rbp
	ret
	.seh_handler	__gxx_personality_seh0, @unwind, @except
	.seh_handlerdata
.LLSDA2740:
	.byte	0xff
	.byte	0xff
	.byte	0x1
	.uleb128 .LLSDACSE2740-.LLSDACSB2740
.LLSDACSB2740:
	.uleb128 .LEHB39-.LFB2740
	.uleb128 .LEHE39-.LEHB39
	.uleb128 0
	.uleb128 0
	.uleb128 .LEHB40-.LFB2740
	.uleb128 .LEHE40-.LEHB40
	.uleb128 .L303-.LFB2740
	.uleb128 0
	.uleb128 .LEHB41-.LFB2740
	.uleb128 .LEHE41-.LEHB41
	.uleb128 0
	.uleb128 0
.LLSDACSE2740:
	.section	.text$_ZNSt4listIiSaIiEE14_M_create_nodeIJiEEEPSt10_List_nodeIiEDpOT_,"x"
	.linkonce discard
	.seh_endproc
	.section	.text$_ZNSt10_List_baseIiSaIiEE11_M_inc_sizeEm,"x"
	.linkonce discard
	.align 2
	.globl	_ZNSt10_List_baseIiSaIiEE11_M_inc_sizeEm
	.def	_ZNSt10_List_baseIiSaIiEE11_M_inc_sizeEm;	.scl	2;	.type	32;	.endef
	.seh_proc	_ZNSt10_List_baseIiSaIiEE11_M_inc_sizeEm
_ZNSt10_List_baseIiSaIiEE11_M_inc_sizeEm:
.LFB2741:
	pushq	%rbp
	.seh_pushreg	%rbp
	movq	%rsp, %rbp
	.seh_setframe	%rbp, 0
	.seh_endprologue
	movq	%rcx, 16(%rbp)
	movq	%rdx, 24(%rbp)
	nop
	popq	%rbp
	ret
	.seh_endproc
	.section	.text$_ZNSt16allocator_traitsISaISt6vectorIiSaIiEEEE37select_on_container_copy_constructionERKS3_,"x"
	.linkonce discard
	.globl	_ZNSt16allocator_traitsISaISt6vectorIiSaIiEEEE37select_on_container_copy_constructionERKS3_
	.def	_ZNSt16allocator_traitsISaISt6vectorIiSaIiEEEE37select_on_container_copy_constructionERKS3_;	.scl	2;	.type	32;	.endef
	.seh_proc	_ZNSt16allocator_traitsISaISt6vectorIiSaIiEEEE37select_on_container_copy_constructionERKS3_
_ZNSt16allocator_traitsISaISt6vectorIiSaIiEEEE37select_on_container_copy_constructionERKS3_:
.LFB2742:
	pushq	%rbp
	.seh_pushreg	%rbp
	movq	%rsp, %rbp
	.seh_setframe	%rbp, 0
	subq	$32, %rsp
	.seh_stackalloc	32
	.seh_endprologue
	movq	%rcx, 16(%rbp)
	movq	%rdx, 24(%rbp)
	movq	24(%rbp), %rax
	movq	%rax, %rdx
	movq	16(%rbp), %rcx
	call	_ZNSaISt6vectorIiSaIiEEEC1ERKS2_
	movq	16(%rbp), %rax
	addq	$32, %rsp
	popq	%rbp
	ret
	.seh_endproc
	.section	.text$_ZNSaISt6vectorIiSaIiEEEC2ERKS2_,"x"
	.linkonce discard
	.align 2
	.globl	_ZNSaISt6vectorIiSaIiEEEC2ERKS2_
	.def	_ZNSaISt6vectorIiSaIiEEEC2ERKS2_;	.scl	2;	.type	32;	.endef
	.seh_proc	_ZNSaISt6vectorIiSaIiEEEC2ERKS2_
_ZNSaISt6vectorIiSaIiEEEC2ERKS2_:
.LFB2744:
	pushq	%rbp
	.seh_pushreg	%rbp
	movq	%rsp, %rbp
	.seh_setframe	%rbp, 0
	subq	$32, %rsp
	.seh_stackalloc	32
	.seh_endprologue
	movq	%rcx, 16(%rbp)
	movq	%rdx, 24(%rbp)
	movq	24(%rbp), %rax
	movq	%rax, %rdx
	movq	16(%rbp), %rcx
	call	_ZN9__gnu_cxx13new_allocatorISt6vectorIiSaIiEEEC2ERKS4_
	nop
	addq	$32, %rsp
	popq	%rbp
	ret
	.seh_endproc
	.section	.text$_ZNSaISt6vectorIiSaIiEEEC1ERKS2_,"x"
	.linkonce discard
	.align 2
	.globl	_ZNSaISt6vectorIiSaIiEEEC1ERKS2_
	.def	_ZNSaISt6vectorIiSaIiEEEC1ERKS2_;	.scl	2;	.type	32;	.endef
	.seh_proc	_ZNSaISt6vectorIiSaIiEEEC1ERKS2_
_ZNSaISt6vectorIiSaIiEEEC1ERKS2_:
.LFB2745:
	pushq	%rbp
	.seh_pushreg	%rbp
	movq	%rsp, %rbp
	.seh_setframe	%rbp, 0
	subq	$32, %rsp
	.seh_stackalloc	32
	.seh_endprologue
	movq	%rcx, 16(%rbp)
	movq	%rdx, 24(%rbp)
	movq	24(%rbp), %rax
	movq	%rax, %rdx
	movq	16(%rbp), %rcx
	call	_ZN9__gnu_cxx13new_allocatorISt6vectorIiSaIiEEEC2ERKS4_
	nop
	addq	$32, %rsp
	popq	%rbp
	ret
	.seh_endproc
	.section	.text$_ZN9__gnu_cxx13new_allocatorISt6vectorIiSaIiEEED2Ev,"x"
	.linkonce discard
	.align 2
	.globl	_ZN9__gnu_cxx13new_allocatorISt6vectorIiSaIiEEED2Ev
	.def	_ZN9__gnu_cxx13new_allocatorISt6vectorIiSaIiEEED2Ev;	.scl	2;	.type	32;	.endef
	.seh_proc	_ZN9__gnu_cxx13new_allocatorISt6vectorIiSaIiEEED2Ev
_ZN9__gnu_cxx13new_allocatorISt6vectorIiSaIiEEED2Ev:
.LFB2747:
	pushq	%rbp
	.seh_pushreg	%rbp
	movq	%rsp, %rbp
	.seh_setframe	%rbp, 0
	.seh_endprologue
	movq	%rcx, 16(%rbp)
	nop
	popq	%rbp
	ret
	.seh_endproc
	.section	.text$_ZNSt12_Vector_baseISt6vectorIiSaIiEESaIS2_EE12_Vector_implC1ERKS3_,"x"
	.linkonce discard
	.align 2
	.globl	_ZNSt12_Vector_baseISt6vectorIiSaIiEESaIS2_EE12_Vector_implC1ERKS3_
	.def	_ZNSt12_Vector_baseISt6vectorIiSaIiEESaIS2_EE12_Vector_implC1ERKS3_;	.scl	2;	.type	32;	.endef
	.seh_proc	_ZNSt12_Vector_baseISt6vectorIiSaIiEESaIS2_EE12_Vector_implC1ERKS3_
_ZNSt12_Vector_baseISt6vectorIiSaIiEESaIS2_EE12_Vector_implC1ERKS3_:
.LFB2751:
	pushq	%rbp
	.seh_pushreg	%rbp
	movq	%rsp, %rbp
	.seh_setframe	%rbp, 0
	subq	$32, %rsp
	.seh_stackalloc	32
	.seh_endprologue
	movq	%rcx, 16(%rbp)
	movq	%rdx, 24(%rbp)
	movq	24(%rbp), %rax
	movq	%rax, %rdx
	movq	16(%rbp), %rcx
	call	_ZNSaISt6vectorIiSaIiEEEC2ERKS2_
	movq	16(%rbp), %rax
	movq	$0, (%rax)
	movq	16(%rbp), %rax
	movq	$0, 8(%rax)
	movq	16(%rbp), %rax
	movq	$0, 16(%rax)
	nop
	addq	$32, %rsp
	popq	%rbp
	ret
	.seh_endproc
	.section	.text$_ZNSt12_Vector_baseISt6vectorIiSaIiEESaIS2_EE17_M_create_storageEm,"x"
	.linkonce discard
	.align 2
	.globl	_ZNSt12_Vector_baseISt6vectorIiSaIiEESaIS2_EE17_M_create_storageEm
	.def	_ZNSt12_Vector_baseISt6vectorIiSaIiEESaIS2_EE17_M_create_storageEm;	.scl	2;	.type	32;	.endef
	.seh_proc	_ZNSt12_Vector_baseISt6vectorIiSaIiEESaIS2_EE17_M_create_storageEm
_ZNSt12_Vector_baseISt6vectorIiSaIiEESaIS2_EE17_M_create_storageEm:
.LFB2752:
	pushq	%rbp
	.seh_pushreg	%rbp
	movq	%rsp, %rbp
	.seh_setframe	%rbp, 0
	subq	$32, %rsp
	.seh_stackalloc	32
	.seh_endprologue
	movq	%rcx, 16(%rbp)
	movq	%rdx, 24(%rbp)
	movq	24(%rbp), %rax
	movq	%rax, %rdx
	movq	16(%rbp), %rcx
	call	_ZNSt12_Vector_baseISt6vectorIiSaIiEESaIS2_EE11_M_allocateEm
	movq	%rax, %rdx
	movq	16(%rbp), %rax
	movq	%rdx, (%rax)
	movq	16(%rbp), %rax
	movq	(%rax), %rdx
	movq	16(%rbp), %rax
	movq	%rdx, 8(%rax)
	movq	16(%rbp), %rax
	movq	(%rax), %rcx
	movq	24(%rbp), %rdx
	movq	%rdx, %rax
	addq	%rax, %rax
	addq	%rdx, %rax
	salq	$3, %rax
	leaq	(%rcx,%rax), %rdx
	movq	16(%rbp), %rax
	movq	%rdx, 16(%rax)
	nop
	addq	$32, %rsp
	popq	%rbp
	ret
	.seh_endproc
	.section	.text$_ZN9__gnu_cxx17__normal_iteratorIPKSt6vectorIiSaIiEES1_IS3_SaIS3_EEEC1ERKS5_,"x"
	.linkonce discard
	.align 2
	.globl	_ZN9__gnu_cxx17__normal_iteratorIPKSt6vectorIiSaIiEES1_IS3_SaIS3_EEEC1ERKS5_
	.def	_ZN9__gnu_cxx17__normal_iteratorIPKSt6vectorIiSaIiEES1_IS3_SaIS3_EEEC1ERKS5_;	.scl	2;	.type	32;	.endef
	.seh_proc	_ZN9__gnu_cxx17__normal_iteratorIPKSt6vectorIiSaIiEES1_IS3_SaIS3_EEEC1ERKS5_
_ZN9__gnu_cxx17__normal_iteratorIPKSt6vectorIiSaIiEES1_IS3_SaIS3_EEEC1ERKS5_:
.LFB2755:
	pushq	%rbp
	.seh_pushreg	%rbp
	movq	%rsp, %rbp
	.seh_setframe	%rbp, 0
	.seh_endprologue
	movq	%rcx, 16(%rbp)
	movq	%rdx, 24(%rbp)
	movq	24(%rbp), %rax
	movq	(%rax), %rdx
	movq	16(%rbp), %rax
	movq	%rdx, (%rax)
	nop
	popq	%rbp
	ret
	.seh_endproc
	.section	.text$_ZSt18uninitialized_copyIN9__gnu_cxx17__normal_iteratorIPKSt6vectorIiSaIiEES2_IS4_SaIS4_EEEEPS4_ET0_T_SC_SB_,"x"
	.linkonce discard
	.globl	_ZSt18uninitialized_copyIN9__gnu_cxx17__normal_iteratorIPKSt6vectorIiSaIiEES2_IS4_SaIS4_EEEEPS4_ET0_T_SC_SB_
	.def	_ZSt18uninitialized_copyIN9__gnu_cxx17__normal_iteratorIPKSt6vectorIiSaIiEES2_IS4_SaIS4_EEEEPS4_ET0_T_SC_SB_;	.scl	2;	.type	32;	.endef
	.seh_proc	_ZSt18uninitialized_copyIN9__gnu_cxx17__normal_iteratorIPKSt6vectorIiSaIiEES2_IS4_SaIS4_EEEEPS4_ET0_T_SC_SB_
_ZSt18uninitialized_copyIN9__gnu_cxx17__normal_iteratorIPKSt6vectorIiSaIiEES2_IS4_SaIS4_EEEEPS4_ET0_T_SC_SB_:
.LFB2756:
	pushq	%rbp
	.seh_pushreg	%rbp
	movq	%rsp, %rbp
	.seh_setframe	%rbp, 0
	subq	$48, %rsp
	.seh_stackalloc	48
	.seh_endprologue
	movq	%rcx, 16(%rbp)
	movq	%rdx, 24(%rbp)
	movq	%r8, 32(%rbp)
	movb	$1, -1(%rbp)
	movq	32(%rbp), %rdx
	movq	24(%rbp), %rax
	movq	%rdx, %r8
	movq	%rax, %rdx
	movq	16(%rbp), %rcx
	call	_ZNSt20__uninitialized_copyILb0EE13__uninit_copyIN9__gnu_cxx17__normal_iteratorIPKSt6vectorIiSaIiEES4_IS6_SaIS6_EEEEPS6_EET0_T_SE_SD_
	addq	$48, %rsp
	popq	%rbp
	ret
	.seh_endproc
	.section	.text$_ZNSt10_List_baseIiSaIiEE11_S_distanceEPKNSt8__detail15_List_node_baseES5_,"x"
	.linkonce discard
	.globl	_ZNSt10_List_baseIiSaIiEE11_S_distanceEPKNSt8__detail15_List_node_baseES5_
	.def	_ZNSt10_List_baseIiSaIiEE11_S_distanceEPKNSt8__detail15_List_node_baseES5_;	.scl	2;	.type	32;	.endef
	.seh_proc	_ZNSt10_List_baseIiSaIiEE11_S_distanceEPKNSt8__detail15_List_node_baseES5_
_ZNSt10_List_baseIiSaIiEE11_S_distanceEPKNSt8__detail15_List_node_baseES5_:
.LFB2757:
	pushq	%rbp
	.seh_pushreg	%rbp
	movq	%rsp, %rbp
	.seh_setframe	%rbp, 0
	subq	$16, %rsp
	.seh_stackalloc	16
	.seh_endprologue
	movq	%rcx, 16(%rbp)
	movq	%rdx, 24(%rbp)
	movq	$0, -8(%rbp)
.L318:
	movq	16(%rbp), %rax
	cmpq	24(%rbp), %rax
	je	.L317
	movq	16(%rbp), %rax
	movq	(%rax), %rax
	movq	%rax, 16(%rbp)
	addq	$1, -8(%rbp)
	jmp	.L318
.L317:
	movq	-8(%rbp), %rax
	addq	$16, %rsp
	popq	%rbp
	ret
	.seh_endproc
	.section	.text$_ZSt11__addressofIKNSt8__detail15_List_node_baseEEPT_RS3_,"x"
	.linkonce discard
	.globl	_ZSt11__addressofIKNSt8__detail15_List_node_baseEEPT_RS3_
	.def	_ZSt11__addressofIKNSt8__detail15_List_node_baseEEPT_RS3_;	.scl	2;	.type	32;	.endef
	.seh_proc	_ZSt11__addressofIKNSt8__detail15_List_node_baseEEPT_RS3_
_ZSt11__addressofIKNSt8__detail15_List_node_baseEEPT_RS3_:
.LFB2758:
	pushq	%rbp
	.seh_pushreg	%rbp
	movq	%rsp, %rbp
	.seh_setframe	%rbp, 0
	.seh_endprologue
	movq	%rcx, 16(%rbp)
	movq	16(%rbp), %rax
	popq	%rbp
	ret
	.seh_endproc
	.section	.text$_ZNSt10_List_baseIiSaIiEE11_M_set_sizeEm,"x"
	.linkonce discard
	.align 2
	.globl	_ZNSt10_List_baseIiSaIiEE11_M_set_sizeEm
	.def	_ZNSt10_List_baseIiSaIiEE11_M_set_sizeEm;	.scl	2;	.type	32;	.endef
	.seh_proc	_ZNSt10_List_baseIiSaIiEE11_M_set_sizeEm
_ZNSt10_List_baseIiSaIiEE11_M_set_sizeEm:
.LFB2759:
	pushq	%rbp
	.seh_pushreg	%rbp
	movq	%rsp, %rbp
	.seh_setframe	%rbp, 0
	.seh_endprologue
	movq	%rcx, 16(%rbp)
	movq	%rdx, 24(%rbp)
	nop
	popq	%rbp
	ret
	.seh_endproc
	.section	.text$_ZNSt10_List_baseIiSaIiEE11_M_dec_sizeEm,"x"
	.linkonce discard
	.align 2
	.globl	_ZNSt10_List_baseIiSaIiEE11_M_dec_sizeEm
	.def	_ZNSt10_List_baseIiSaIiEE11_M_dec_sizeEm;	.scl	2;	.type	32;	.endef
	.seh_proc	_ZNSt10_List_baseIiSaIiEE11_M_dec_sizeEm
_ZNSt10_List_baseIiSaIiEE11_M_dec_sizeEm:
.LFB2760:
	pushq	%rbp
	.seh_pushreg	%rbp
	movq	%rsp, %rbp
	.seh_setframe	%rbp, 0
	.seh_endprologue
	movq	%rcx, 16(%rbp)
	movq	%rdx, 24(%rbp)
	nop
	popq	%rbp
	ret
	.seh_endproc
	.section	.text$_ZNSaISt6vectorIiSaIiEEEC2Ev,"x"
	.linkonce discard
	.align 2
	.globl	_ZNSaISt6vectorIiSaIiEEEC2Ev
	.def	_ZNSaISt6vectorIiSaIiEEEC2Ev;	.scl	2;	.type	32;	.endef
	.seh_proc	_ZNSaISt6vectorIiSaIiEEEC2Ev
_ZNSaISt6vectorIiSaIiEEEC2Ev:
.LFB2775:
	pushq	%rbp
	.seh_pushreg	%rbp
	movq	%rsp, %rbp
	.seh_setframe	%rbp, 0
	subq	$32, %rsp
	.seh_stackalloc	32
	.seh_endprologue
	movq	%rcx, 16(%rbp)
	movq	16(%rbp), %rcx
	call	_ZN9__gnu_cxx13new_allocatorISt6vectorIiSaIiEEEC2Ev
	nop
	addq	$32, %rsp
	popq	%rbp
	ret
	.seh_endproc
	.section	.text$_ZNSt16allocator_traitsISaISt6vectorIiSaIiEEEE10deallocateERS3_PS2_m,"x"
	.linkonce discard
	.globl	_ZNSt16allocator_traitsISaISt6vectorIiSaIiEEEE10deallocateERS3_PS2_m
	.def	_ZNSt16allocator_traitsISaISt6vectorIiSaIiEEEE10deallocateERS3_PS2_m;	.scl	2;	.type	32;	.endef
	.seh_proc	_ZNSt16allocator_traitsISaISt6vectorIiSaIiEEEE10deallocateERS3_PS2_m
_ZNSt16allocator_traitsISaISt6vectorIiSaIiEEEE10deallocateERS3_PS2_m:
.LFB2777:
	pushq	%rbp
	.seh_pushreg	%rbp
	movq	%rsp, %rbp
	.seh_setframe	%rbp, 0
	subq	$32, %rsp
	.seh_stackalloc	32
	.seh_endprologue
	movq	%rcx, 16(%rbp)
	movq	%rdx, 24(%rbp)
	movq	%r8, 32(%rbp)
	movq	32(%rbp), %rdx
	movq	24(%rbp), %rax
	movq	%rdx, %r8
	movq	%rax, %rdx
	movq	16(%rbp), %rcx
	call	_ZN9__gnu_cxx13new_allocatorISt6vectorIiSaIiEEE10deallocateEPS3_m
	nop
	addq	$32, %rsp
	popq	%rbp
	ret
	.seh_endproc
	.section	.text$_ZNSt12_Destroy_auxILb0EE9__destroyIPSt6vectorIiSaIiEEEEvT_S6_,"x"
	.linkonce discard
	.globl	_ZNSt12_Destroy_auxILb0EE9__destroyIPSt6vectorIiSaIiEEEEvT_S6_
	.def	_ZNSt12_Destroy_auxILb0EE9__destroyIPSt6vectorIiSaIiEEEEvT_S6_;	.scl	2;	.type	32;	.endef
	.seh_proc	_ZNSt12_Destroy_auxILb0EE9__destroyIPSt6vectorIiSaIiEEEEvT_S6_
_ZNSt12_Destroy_auxILb0EE9__destroyIPSt6vectorIiSaIiEEEEvT_S6_:
.LFB2778:
	pushq	%rbp
	.seh_pushreg	%rbp
	movq	%rsp, %rbp
	.seh_setframe	%rbp, 0
	subq	$32, %rsp
	.seh_stackalloc	32
	.seh_endprologue
	movq	%rcx, 16(%rbp)
	movq	%rdx, 24(%rbp)
.L328:
	movq	16(%rbp), %rax
	cmpq	24(%rbp), %rax
	je	.L329
	movq	16(%rbp), %rcx
	call	_ZSt11__addressofISt6vectorIiSaIiEEEPT_RS3_
	movq	%rax, %rcx
	call	_ZSt8_DestroyISt6vectorIiSaIiEEEvPT_
	addq	$24, 16(%rbp)
	jmp	.L328
.L329:
	nop
	addq	$32, %rsp
	popq	%rbp
	ret
	.seh_endproc
	.section	.text$_ZNSt16allocator_traitsISaIiEE10deallocateERS0_Pim,"x"
	.linkonce discard
	.globl	_ZNSt16allocator_traitsISaIiEE10deallocateERS0_Pim
	.def	_ZNSt16allocator_traitsISaIiEE10deallocateERS0_Pim;	.scl	2;	.type	32;	.endef
	.seh_proc	_ZNSt16allocator_traitsISaIiEE10deallocateERS0_Pim
_ZNSt16allocator_traitsISaIiEE10deallocateERS0_Pim:
.LFB2779:
	pushq	%rbp
	.seh_pushreg	%rbp
	movq	%rsp, %rbp
	.seh_setframe	%rbp, 0
	subq	$32, %rsp
	.seh_stackalloc	32
	.seh_endprologue
	movq	%rcx, 16(%rbp)
	movq	%rdx, 24(%rbp)
	movq	%r8, 32(%rbp)
	movq	32(%rbp), %rdx
	movq	24(%rbp), %rax
	movq	%rdx, %r8
	movq	%rax, %rdx
	movq	16(%rbp), %rcx
	call	_ZN9__gnu_cxx13new_allocatorIiE10deallocateEPim
	nop
	addq	$32, %rsp
	popq	%rbp
	ret
	.seh_endproc
	.section	.text$_ZNSt12_Destroy_auxILb1EE9__destroyIPiEEvT_S3_,"x"
	.linkonce discard
	.globl	_ZNSt12_Destroy_auxILb1EE9__destroyIPiEEvT_S3_
	.def	_ZNSt12_Destroy_auxILb1EE9__destroyIPiEEvT_S3_;	.scl	2;	.type	32;	.endef
	.seh_proc	_ZNSt12_Destroy_auxILb1EE9__destroyIPiEEvT_S3_
_ZNSt12_Destroy_auxILb1EE9__destroyIPiEEvT_S3_:
.LFB2780:
	pushq	%rbp
	.seh_pushreg	%rbp
	movq	%rsp, %rbp
	.seh_setframe	%rbp, 0
	.seh_endprologue
	movq	%rcx, 16(%rbp)
	movq	%rdx, 24(%rbp)
	nop
	popq	%rbp
	ret
	.seh_endproc
	.section	.text$_ZSt20uninitialized_fill_nIPimiET_S1_T0_RKT1_,"x"
	.linkonce discard
	.globl	_ZSt20uninitialized_fill_nIPimiET_S1_T0_RKT1_
	.def	_ZSt20uninitialized_fill_nIPimiET_S1_T0_RKT1_;	.scl	2;	.type	32;	.endef
	.seh_proc	_ZSt20uninitialized_fill_nIPimiET_S1_T0_RKT1_
_ZSt20uninitialized_fill_nIPimiET_S1_T0_RKT1_:
.LFB2781:
	pushq	%rbp
	.seh_pushreg	%rbp
	movq	%rsp, %rbp
	.seh_setframe	%rbp, 0
	subq	$48, %rsp
	.seh_stackalloc	48
	.seh_endprologue
	movq	%rcx, 16(%rbp)
	movq	%rdx, 24(%rbp)
	movq	%r8, 32(%rbp)
	movb	$1, -1(%rbp)
	movq	32(%rbp), %rdx
	movq	24(%rbp), %rax
	movq	%rdx, %r8
	movq	%rax, %rdx
	movq	16(%rbp), %rcx
	call	_ZNSt22__uninitialized_fill_nILb1EE15__uninit_fill_nIPimiEET_S3_T0_RKT1_
	addq	$48, %rsp
	popq	%rbp
	ret
	.seh_endproc
	.section	.text$_ZNSt6vectorIS_IiSaIiEESaIS1_EE16_Temporary_value6_M_ptrEv,"x"
	.linkonce discard
	.align 2
	.globl	_ZNSt6vectorIS_IiSaIiEESaIS1_EE16_Temporary_value6_M_ptrEv
	.def	_ZNSt6vectorIS_IiSaIiEESaIS1_EE16_Temporary_value6_M_ptrEv;	.scl	2;	.type	32;	.endef
	.seh_proc	_ZNSt6vectorIS_IiSaIiEESaIS1_EE16_Temporary_value6_M_ptrEv
_ZNSt6vectorIS_IiSaIiEESaIS1_EE16_Temporary_value6_M_ptrEv:
.LFB2782:
	pushq	%rbp
	.seh_pushreg	%rbp
	movq	%rsp, %rbp
	.seh_setframe	%rbp, 0
	subq	$32, %rsp
	.seh_stackalloc	32
	.seh_endprologue
	movq	%rcx, 16(%rbp)
	movq	16(%rbp), %rcx
	call	_ZNSt6vectorIS_IiSaIiEESaIS1_EE16_Temporary_value6_M_valEv
	movq	%rax, %rcx
	call	_ZNSt14pointer_traitsIPSt6vectorIiSaIiEEE10pointer_toERS2_
	addq	$32, %rsp
	popq	%rbp
	ret
	.seh_endproc
	.section	.text$_ZSt7forwardIRKSt6vectorIiSaIiEEEOT_RNSt16remove_referenceIS5_E4typeE,"x"
	.linkonce discard
	.globl	_ZSt7forwardIRKSt6vectorIiSaIiEEEOT_RNSt16remove_referenceIS5_E4typeE
	.def	_ZSt7forwardIRKSt6vectorIiSaIiEEEOT_RNSt16remove_referenceIS5_E4typeE;	.scl	2;	.type	32;	.endef
	.seh_proc	_ZSt7forwardIRKSt6vectorIiSaIiEEEOT_RNSt16remove_referenceIS5_E4typeE
_ZSt7forwardIRKSt6vectorIiSaIiEEEOT_RNSt16remove_referenceIS5_E4typeE:
.LFB2783:
	pushq	%rbp
	.seh_pushreg	%rbp
	movq	%rsp, %rbp
	.seh_setframe	%rbp, 0
	.seh_endprologue
	movq	%rcx, 16(%rbp)
	movq	16(%rbp), %rax
	popq	%rbp
	ret
	.seh_endproc
	.section	.text$_ZNSt16allocator_traitsISaISt6vectorIiSaIiEEEE9constructIS2_JRKS2_EEEvRS3_PT_DpOT0_,"x"
	.linkonce discard
	.globl	_ZNSt16allocator_traitsISaISt6vectorIiSaIiEEEE9constructIS2_JRKS2_EEEvRS3_PT_DpOT0_
	.def	_ZNSt16allocator_traitsISaISt6vectorIiSaIiEEEE9constructIS2_JRKS2_EEEvRS3_PT_DpOT0_;	.scl	2;	.type	32;	.endef
	.seh_proc	_ZNSt16allocator_traitsISaISt6vectorIiSaIiEEEE9constructIS2_JRKS2_EEEvRS3_PT_DpOT0_
_ZNSt16allocator_traitsISaISt6vectorIiSaIiEEEE9constructIS2_JRKS2_EEEvRS3_PT_DpOT0_:
.LFB2784:
	pushq	%rbp
	.seh_pushreg	%rbp
	movq	%rsp, %rbp
	.seh_setframe	%rbp, 0
	subq	$32, %rsp
	.seh_stackalloc	32
	.seh_endprologue
	movq	%rcx, 16(%rbp)
	movq	%rdx, 24(%rbp)
	movq	%r8, 32(%rbp)
	movq	32(%rbp), %rax
	movq	%rax, %rcx
	call	_ZSt7forwardIRKSt6vectorIiSaIiEEEOT_RNSt16remove_referenceIS5_E4typeE
	movq	%rax, %rdx
	movq	24(%rbp), %rax
	movq	%rdx, %r8
	movq	%rax, %rdx
	movq	16(%rbp), %rcx
	call	_ZN9__gnu_cxx13new_allocatorISt6vectorIiSaIiEEE9constructIS3_JRKS3_EEEvPT_DpOT0_
	nop
	addq	$32, %rsp
	popq	%rbp
	ret
	.seh_endproc
	.section	.text$_ZNSt16allocator_traitsISaISt6vectorIiSaIiEEEE7destroyIS2_EEvRS3_PT_,"x"
	.linkonce discard
	.globl	_ZNSt16allocator_traitsISaISt6vectorIiSaIiEEEE7destroyIS2_EEvRS3_PT_
	.def	_ZNSt16allocator_traitsISaISt6vectorIiSaIiEEEE7destroyIS2_EEvRS3_PT_;	.scl	2;	.type	32;	.endef
	.seh_proc	_ZNSt16allocator_traitsISaISt6vectorIiSaIiEEEE7destroyIS2_EEvRS3_PT_
_ZNSt16allocator_traitsISaISt6vectorIiSaIiEEEE7destroyIS2_EEvRS3_PT_:
.LFB2785:
	pushq	%rbp
	.seh_pushreg	%rbp
	movq	%rsp, %rbp
	.seh_setframe	%rbp, 0
	subq	$32, %rsp
	.seh_stackalloc	32
	.seh_endprologue
	movq	%rcx, 16(%rbp)
	movq	%rdx, 24(%rbp)
	movq	24(%rbp), %rax
	movq	%rax, %rdx
	movq	16(%rbp), %rcx
	call	_ZN9__gnu_cxx13new_allocatorISt6vectorIiSaIiEEE7destroyIS3_EEvPT_
	nop
	addq	$32, %rsp
	popq	%rbp
	ret
	.seh_endproc
	.section	.text$_ZSt18make_move_iteratorIPSt6vectorIiSaIiEEESt13move_iteratorIT_ES5_,"x"
	.linkonce discard
	.globl	_ZSt18make_move_iteratorIPSt6vectorIiSaIiEEESt13move_iteratorIT_ES5_
	.def	_ZSt18make_move_iteratorIPSt6vectorIiSaIiEEESt13move_iteratorIT_ES5_;	.scl	2;	.type	32;	.endef
	.seh_proc	_ZSt18make_move_iteratorIPSt6vectorIiSaIiEEESt13move_iteratorIT_ES5_
_ZSt18make_move_iteratorIPSt6vectorIiSaIiEEESt13move_iteratorIT_ES5_:
.LFB2786:
	pushq	%rbp
	.seh_pushreg	%rbp
	movq	%rsp, %rbp
	.seh_setframe	%rbp, 0
	subq	$48, %rsp
	.seh_stackalloc	48
	.seh_endprologue
	movq	%rcx, 16(%rbp)
	leaq	-8(%rbp), %rax
	movq	16(%rbp), %rdx
	movq	%rax, %rcx
	call	_ZNSt13move_iteratorIPSt6vectorIiSaIiEEEC1ES3_
	movq	-8(%rbp), %rax
	addq	$48, %rsp
	popq	%rbp
	ret
	.seh_endproc
	.section	.text$_ZSt22__uninitialized_copy_aISt13move_iteratorIPSt6vectorIiSaIiEEES4_S3_ET0_T_S7_S6_RSaIT1_E,"x"
	.linkonce discard
	.globl	_ZSt22__uninitialized_copy_aISt13move_iteratorIPSt6vectorIiSaIiEEES4_S3_ET0_T_S7_S6_RSaIT1_E
	.def	_ZSt22__uninitialized_copy_aISt13move_iteratorIPSt6vectorIiSaIiEEES4_S3_ET0_T_S7_S6_RSaIT1_E;	.scl	2;	.type	32;	.endef
	.seh_proc	_ZSt22__uninitialized_copy_aISt13move_iteratorIPSt6vectorIiSaIiEEES4_S3_ET0_T_S7_S6_RSaIT1_E
_ZSt22__uninitialized_copy_aISt13move_iteratorIPSt6vectorIiSaIiEEES4_S3_ET0_T_S7_S6_RSaIT1_E:
.LFB2787:
	pushq	%rbp
	.seh_pushreg	%rbp
	movq	%rsp, %rbp
	.seh_setframe	%rbp, 0
	subq	$32, %rsp
	.seh_stackalloc	32
	.seh_endprologue
	movq	%rcx, 16(%rbp)
	movq	%rdx, 24(%rbp)
	movq	%r8, 32(%rbp)
	movq	%r9, 40(%rbp)
	movq	32(%rbp), %rdx
	movq	24(%rbp), %rax
	movq	%rdx, %r8
	movq	%rax, %rdx
	movq	16(%rbp), %rcx
	call	_ZSt18uninitialized_copyISt13move_iteratorIPSt6vectorIiSaIiEEES4_ET0_T_S7_S6_
	addq	$32, %rsp
	popq	%rbp
	ret
	.seh_endproc
	.section	.text$_ZSt12__miter_baseIPSt6vectorIiSaIiEEET_S4_,"x"
	.linkonce discard
	.globl	_ZSt12__miter_baseIPSt6vectorIiSaIiEEET_S4_
	.def	_ZSt12__miter_baseIPSt6vectorIiSaIiEEET_S4_;	.scl	2;	.type	32;	.endef
	.seh_proc	_ZSt12__miter_baseIPSt6vectorIiSaIiEEET_S4_
_ZSt12__miter_baseIPSt6vectorIiSaIiEEET_S4_:
.LFB2788:
	pushq	%rbp
	.seh_pushreg	%rbp
	movq	%rsp, %rbp
	.seh_setframe	%rbp, 0
	.seh_endprologue
	movq	%rcx, 16(%rbp)
	movq	16(%rbp), %rax
	popq	%rbp
	ret
	.seh_endproc
	.section	.text$_ZSt23__copy_move_backward_a2ILb1EPSt6vectorIiSaIiEES3_ET1_T0_S5_S4_,"x"
	.linkonce discard
	.globl	_ZSt23__copy_move_backward_a2ILb1EPSt6vectorIiSaIiEES3_ET1_T0_S5_S4_
	.def	_ZSt23__copy_move_backward_a2ILb1EPSt6vectorIiSaIiEES3_ET1_T0_S5_S4_;	.scl	2;	.type	32;	.endef
	.seh_proc	_ZSt23__copy_move_backward_a2ILb1EPSt6vectorIiSaIiEES3_ET1_T0_S5_S4_
_ZSt23__copy_move_backward_a2ILb1EPSt6vectorIiSaIiEES3_ET1_T0_S5_S4_:
.LFB2789:
	pushq	%rbp
	.seh_pushreg	%rbp
	pushq	%rsi
	.seh_pushreg	%rsi
	pushq	%rbx
	.seh_pushreg	%rbx
	movq	%rsp, %rbp
	.seh_setframe	%rbp, 0
	subq	$32, %rsp
	.seh_stackalloc	32
	.seh_endprologue
	movq	%rcx, 32(%rbp)
	movq	%rdx, 40(%rbp)
	movq	%r8, 48(%rbp)
	movq	48(%rbp), %rax
	movq	%rax, %rcx
	call	_ZSt12__niter_baseIPSt6vectorIiSaIiEEET_S4_
	movq	%rax, %rsi
	movq	40(%rbp), %rax
	movq	%rax, %rcx
	call	_ZSt12__niter_baseIPSt6vectorIiSaIiEEET_S4_
	movq	%rax, %rbx
	movq	32(%rbp), %rcx
	call	_ZSt12__niter_baseIPSt6vectorIiSaIiEEET_S4_
	movq	%rsi, %r8
	movq	%rbx, %rdx
	movq	%rax, %rcx
	call	_ZSt22__copy_move_backward_aILb1EPSt6vectorIiSaIiEES3_ET1_T0_S5_S4_
	addq	$32, %rsp
	popq	%rbx
	popq	%rsi
	popq	%rbp
	ret
	.seh_endproc
	.section	.text$_ZSt12__niter_baseIPSt6vectorIiSaIiEEET_S4_,"x"
	.linkonce discard
	.globl	_ZSt12__niter_baseIPSt6vectorIiSaIiEEET_S4_
	.def	_ZSt12__niter_baseIPSt6vectorIiSaIiEEET_S4_;	.scl	2;	.type	32;	.endef
	.seh_proc	_ZSt12__niter_baseIPSt6vectorIiSaIiEEET_S4_
_ZSt12__niter_baseIPSt6vectorIiSaIiEEET_S4_:
.LFB2790:
	pushq	%rbp
	.seh_pushreg	%rbp
	movq	%rsp, %rbp
	.seh_setframe	%rbp, 0
	.seh_endprologue
	movq	%rcx, 16(%rbp)
	movq	16(%rbp), %rax
	popq	%rbp
	ret
	.seh_endproc
	.section	.text$_ZSt8__fill_aIPSt6vectorIiSaIiEES2_EN9__gnu_cxx11__enable_ifIXntsrSt11__is_scalarIT0_E7__valueEvE6__typeET_SB_RKS7_,"x"
	.linkonce discard
	.globl	_ZSt8__fill_aIPSt6vectorIiSaIiEES2_EN9__gnu_cxx11__enable_ifIXntsrSt11__is_scalarIT0_E7__valueEvE6__typeET_SB_RKS7_
	.def	_ZSt8__fill_aIPSt6vectorIiSaIiEES2_EN9__gnu_cxx11__enable_ifIXntsrSt11__is_scalarIT0_E7__valueEvE6__typeET_SB_RKS7_;	.scl	2;	.type	32;	.endef
	.seh_proc	_ZSt8__fill_aIPSt6vectorIiSaIiEES2_EN9__gnu_cxx11__enable_ifIXntsrSt11__is_scalarIT0_E7__valueEvE6__typeET_SB_RKS7_
_ZSt8__fill_aIPSt6vectorIiSaIiEES2_EN9__gnu_cxx11__enable_ifIXntsrSt11__is_scalarIT0_E7__valueEvE6__typeET_SB_RKS7_:
.LFB2791:
	pushq	%rbp
	.seh_pushreg	%rbp
	movq	%rsp, %rbp
	.seh_setframe	%rbp, 0
	subq	$32, %rsp
	.seh_stackalloc	32
	.seh_endprologue
	movq	%rcx, 16(%rbp)
	movq	%rdx, 24(%rbp)
	movq	%r8, 32(%rbp)
.L352:
	movq	16(%rbp), %rax
	cmpq	24(%rbp), %rax
	je	.L353
	movq	32(%rbp), %rax
	movq	%rax, %rdx
	movq	16(%rbp), %rcx
	call	_ZNSt6vectorIiSaIiEEaSERKS1_
	addq	$24, 16(%rbp)
	jmp	.L352
.L353:
	nop
	addq	$32, %rsp
	popq	%rbp
	ret
	.seh_endproc
	.section	.text$_ZSt20uninitialized_fill_nIPSt6vectorIiSaIiEEmS2_ET_S4_T0_RKT1_,"x"
	.linkonce discard
	.globl	_ZSt20uninitialized_fill_nIPSt6vectorIiSaIiEEmS2_ET_S4_T0_RKT1_
	.def	_ZSt20uninitialized_fill_nIPSt6vectorIiSaIiEEmS2_ET_S4_T0_RKT1_;	.scl	2;	.type	32;	.endef
	.seh_proc	_ZSt20uninitialized_fill_nIPSt6vectorIiSaIiEEmS2_ET_S4_T0_RKT1_
_ZSt20uninitialized_fill_nIPSt6vectorIiSaIiEEmS2_ET_S4_T0_RKT1_:
.LFB2792:
	pushq	%rbp
	.seh_pushreg	%rbp
	movq	%rsp, %rbp
	.seh_setframe	%rbp, 0
	subq	$48, %rsp
	.seh_stackalloc	48
	.seh_endprologue
	movq	%rcx, 16(%rbp)
	movq	%rdx, 24(%rbp)
	movq	%r8, 32(%rbp)
	movb	$1, -1(%rbp)
	movq	32(%rbp), %rdx
	movq	24(%rbp), %rax
	movq	%rdx, %r8
	movq	%rax, %rdx
	movq	16(%rbp), %rcx
	call	_ZNSt22__uninitialized_fill_nILb0EE15__uninit_fill_nIPSt6vectorIiSaIiEEmS4_EET_S6_T0_RKT1_
	addq	$48, %rsp
	popq	%rbp
	ret
	.seh_endproc
	.section	.text$_ZNKSt6vectorIS_IiSaIiEESaIS1_EE8max_sizeEv,"x"
	.linkonce discard
	.align 2
	.globl	_ZNKSt6vectorIS_IiSaIiEESaIS1_EE8max_sizeEv
	.def	_ZNKSt6vectorIS_IiSaIiEESaIS1_EE8max_sizeEv;	.scl	2;	.type	32;	.endef
	.seh_proc	_ZNKSt6vectorIS_IiSaIiEESaIS1_EE8max_sizeEv
_ZNKSt6vectorIS_IiSaIiEESaIS1_EE8max_sizeEv:
.LFB2793:
	pushq	%rbp
	.seh_pushreg	%rbp
	movq	%rsp, %rbp
	.seh_setframe	%rbp, 0
	subq	$32, %rsp
	.seh_stackalloc	32
	.seh_endprologue
	movq	%rcx, 16(%rbp)
	movq	16(%rbp), %rax
	movq	%rax, %rcx
	call	_ZNKSt12_Vector_baseISt6vectorIiSaIiEESaIS2_EE19_M_get_Tp_allocatorEv
	movq	%rax, %rcx
	call	_ZNSt16allocator_traitsISaISt6vectorIiSaIiEEEE8max_sizeERKS3_
	addq	$32, %rsp
	popq	%rbp
	ret
	.seh_endproc
	.section	.text$_ZSt3maxImERKT_S2_S2_,"x"
	.linkonce discard
	.globl	_ZSt3maxImERKT_S2_S2_
	.def	_ZSt3maxImERKT_S2_S2_;	.scl	2;	.type	32;	.endef
	.seh_proc	_ZSt3maxImERKT_S2_S2_
_ZSt3maxImERKT_S2_S2_:
.LFB2794:
	pushq	%rbp
	.seh_pushreg	%rbp
	movq	%rsp, %rbp
	.seh_setframe	%rbp, 0
	.seh_endprologue
	movq	%rcx, 16(%rbp)
	movq	%rdx, 24(%rbp)
	movq	16(%rbp), %rax
	movq	(%rax), %rdx
	movq	24(%rbp), %rax
	movq	(%rax), %rax
	cmpq	%rax, %rdx
	jnb	.L359
	movq	24(%rbp), %rax
	jmp	.L360
.L359:
	movq	16(%rbp), %rax
.L360:
	popq	%rbp
	ret
	.seh_endproc
	.section	.text$_ZNSt16allocator_traitsISaISt6vectorIiSaIiEEEE8allocateERS3_m,"x"
	.linkonce discard
	.globl	_ZNSt16allocator_traitsISaISt6vectorIiSaIiEEEE8allocateERS3_m
	.def	_ZNSt16allocator_traitsISaISt6vectorIiSaIiEEEE8allocateERS3_m;	.scl	2;	.type	32;	.endef
	.seh_proc	_ZNSt16allocator_traitsISaISt6vectorIiSaIiEEEE8allocateERS3_m
_ZNSt16allocator_traitsISaISt6vectorIiSaIiEEEE8allocateERS3_m:
.LFB2795:
	pushq	%rbp
	.seh_pushreg	%rbp
	movq	%rsp, %rbp
	.seh_setframe	%rbp, 0
	subq	$32, %rsp
	.seh_stackalloc	32
	.seh_endprologue
	movq	%rcx, 16(%rbp)
	movq	%rdx, 24(%rbp)
	movq	24(%rbp), %rax
	movl	$0, %r8d
	movq	%rax, %rdx
	movq	16(%rbp), %rcx
	call	_ZN9__gnu_cxx13new_allocatorISt6vectorIiSaIiEEE8allocateEmPKv
	addq	$32, %rsp
	popq	%rbp
	ret
	.seh_endproc
	.section	.text$_ZSt32__make_move_if_noexcept_iteratorISt6vectorIiSaIiEESt13move_iteratorIPS2_EET0_PT_,"x"
	.linkonce discard
	.globl	_ZSt32__make_move_if_noexcept_iteratorISt6vectorIiSaIiEESt13move_iteratorIPS2_EET0_PT_
	.def	_ZSt32__make_move_if_noexcept_iteratorISt6vectorIiSaIiEESt13move_iteratorIPS2_EET0_PT_;	.scl	2;	.type	32;	.endef
	.seh_proc	_ZSt32__make_move_if_noexcept_iteratorISt6vectorIiSaIiEESt13move_iteratorIPS2_EET0_PT_
_ZSt32__make_move_if_noexcept_iteratorISt6vectorIiSaIiEESt13move_iteratorIPS2_EET0_PT_:
.LFB2796:
	pushq	%rbp
	.seh_pushreg	%rbp
	movq	%rsp, %rbp
	.seh_setframe	%rbp, 0
	subq	$48, %rsp
	.seh_stackalloc	48
	.seh_endprologue
	movq	%rcx, 16(%rbp)
	leaq	-8(%rbp), %rax
	movq	16(%rbp), %rdx
	movq	%rax, %rcx
	call	_ZNSt13move_iteratorIPSt6vectorIiSaIiEEEC1ES3_
	movq	-8(%rbp), %rax
	addq	$48, %rsp
	popq	%rbp
	ret
	.seh_endproc
	.section	.text$_ZNSt6vectorIiSaIiEE16_Temporary_value6_M_ptrEv,"x"
	.linkonce discard
	.align 2
	.globl	_ZNSt6vectorIiSaIiEE16_Temporary_value6_M_ptrEv
	.def	_ZNSt6vectorIiSaIiEE16_Temporary_value6_M_ptrEv;	.scl	2;	.type	32;	.endef
	.seh_proc	_ZNSt6vectorIiSaIiEE16_Temporary_value6_M_ptrEv
_ZNSt6vectorIiSaIiEE16_Temporary_value6_M_ptrEv:
.LFB2797:
	pushq	%rbp
	.seh_pushreg	%rbp
	movq	%rsp, %rbp
	.seh_setframe	%rbp, 0
	subq	$32, %rsp
	.seh_stackalloc	32
	.seh_endprologue
	movq	%rcx, 16(%rbp)
	movq	16(%rbp), %rcx
	call	_ZNSt6vectorIiSaIiEE16_Temporary_value6_M_valEv
	movq	%rax, %rcx
	call	_ZNSt14pointer_traitsIPiE10pointer_toERi
	addq	$32, %rsp
	popq	%rbp
	ret
	.seh_endproc
	.section	.text$_ZSt7forwardIRKiEOT_RNSt16remove_referenceIS2_E4typeE,"x"
	.linkonce discard
	.globl	_ZSt7forwardIRKiEOT_RNSt16remove_referenceIS2_E4typeE
	.def	_ZSt7forwardIRKiEOT_RNSt16remove_referenceIS2_E4typeE;	.scl	2;	.type	32;	.endef
	.seh_proc	_ZSt7forwardIRKiEOT_RNSt16remove_referenceIS2_E4typeE
_ZSt7forwardIRKiEOT_RNSt16remove_referenceIS2_E4typeE:
.LFB2798:
	pushq	%rbp
	.seh_pushreg	%rbp
	movq	%rsp, %rbp
	.seh_setframe	%rbp, 0
	.seh_endprologue
	movq	%rcx, 16(%rbp)
	movq	16(%rbp), %rax
	popq	%rbp
	ret
	.seh_endproc
	.section	.text$_ZNSt16allocator_traitsISaIiEE9constructIiJRKiEEEvRS0_PT_DpOT0_,"x"
	.linkonce discard
	.globl	_ZNSt16allocator_traitsISaIiEE9constructIiJRKiEEEvRS0_PT_DpOT0_
	.def	_ZNSt16allocator_traitsISaIiEE9constructIiJRKiEEEvRS0_PT_DpOT0_;	.scl	2;	.type	32;	.endef
	.seh_proc	_ZNSt16allocator_traitsISaIiEE9constructIiJRKiEEEvRS0_PT_DpOT0_
_ZNSt16allocator_traitsISaIiEE9constructIiJRKiEEEvRS0_PT_DpOT0_:
.LFB2799:
	pushq	%rbp
	.seh_pushreg	%rbp
	movq	%rsp, %rbp
	.seh_setframe	%rbp, 0
	subq	$32, %rsp
	.seh_stackalloc	32
	.seh_endprologue
	movq	%rcx, 16(%rbp)
	movq	%rdx, 24(%rbp)
	movq	%r8, 32(%rbp)
	movq	32(%rbp), %rax
	movq	%rax, %rcx
	call	_ZSt7forwardIRKiEOT_RNSt16remove_referenceIS2_E4typeE
	movq	%rax, %rdx
	movq	24(%rbp), %rax
	movq	%rdx, %r8
	movq	%rax, %rdx
	movq	16(%rbp), %rcx
	call	_ZN9__gnu_cxx13new_allocatorIiE9constructIiJRKiEEEvPT_DpOT0_
	nop
	addq	$32, %rsp
	popq	%rbp
	ret
	.seh_endproc
	.section	.text$_ZNSt16allocator_traitsISaIiEE7destroyIiEEvRS0_PT_,"x"
	.linkonce discard
	.globl	_ZNSt16allocator_traitsISaIiEE7destroyIiEEvRS0_PT_
	.def	_ZNSt16allocator_traitsISaIiEE7destroyIiEEvRS0_PT_;	.scl	2;	.type	32;	.endef
	.seh_proc	_ZNSt16allocator_traitsISaIiEE7destroyIiEEvRS0_PT_
_ZNSt16allocator_traitsISaIiEE7destroyIiEEvRS0_PT_:
.LFB2800:
	pushq	%rbp
	.seh_pushreg	%rbp
	movq	%rsp, %rbp
	.seh_setframe	%rbp, 0
	subq	$32, %rsp
	.seh_stackalloc	32
	.seh_endprologue
	movq	%rcx, 16(%rbp)
	movq	%rdx, 24(%rbp)
	movq	24(%rbp), %rax
	movq	%rax, %rdx
	movq	16(%rbp), %rcx
	call	_ZN9__gnu_cxx13new_allocatorIiE7destroyIiEEvPT_
	nop
	addq	$32, %rsp
	popq	%rbp
	ret
	.seh_endproc
	.section	.text$_ZSt18make_move_iteratorIPiESt13move_iteratorIT_ES2_,"x"
	.linkonce discard
	.globl	_ZSt18make_move_iteratorIPiESt13move_iteratorIT_ES2_
	.def	_ZSt18make_move_iteratorIPiESt13move_iteratorIT_ES2_;	.scl	2;	.type	32;	.endef
	.seh_proc	_ZSt18make_move_iteratorIPiESt13move_iteratorIT_ES2_
_ZSt18make_move_iteratorIPiESt13move_iteratorIT_ES2_:
.LFB2801:
	pushq	%rbp
	.seh_pushreg	%rbp
	movq	%rsp, %rbp
	.seh_setframe	%rbp, 0
	subq	$48, %rsp
	.seh_stackalloc	48
	.seh_endprologue
	movq	%rcx, 16(%rbp)
	leaq	-8(%rbp), %rax
	movq	16(%rbp), %rdx
	movq	%rax, %rcx
	call	_ZNSt13move_iteratorIPiEC1ES0_
	movq	-8(%rbp), %rax
	addq	$48, %rsp
	popq	%rbp
	ret
	.seh_endproc
	.section	.text$_ZSt22__uninitialized_copy_aISt13move_iteratorIPiES1_iET0_T_S4_S3_RSaIT1_E,"x"
	.linkonce discard
	.globl	_ZSt22__uninitialized_copy_aISt13move_iteratorIPiES1_iET0_T_S4_S3_RSaIT1_E
	.def	_ZSt22__uninitialized_copy_aISt13move_iteratorIPiES1_iET0_T_S4_S3_RSaIT1_E;	.scl	2;	.type	32;	.endef
	.seh_proc	_ZSt22__uninitialized_copy_aISt13move_iteratorIPiES1_iET0_T_S4_S3_RSaIT1_E
_ZSt22__uninitialized_copy_aISt13move_iteratorIPiES1_iET0_T_S4_S3_RSaIT1_E:
.LFB2802:
	pushq	%rbp
	.seh_pushreg	%rbp
	movq	%rsp, %rbp
	.seh_setframe	%rbp, 0
	subq	$32, %rsp
	.seh_stackalloc	32
	.seh_endprologue
	movq	%rcx, 16(%rbp)
	movq	%rdx, 24(%rbp)
	movq	%r8, 32(%rbp)
	movq	%r9, 40(%rbp)
	movq	32(%rbp), %rdx
	movq	24(%rbp), %rax
	movq	%rdx, %r8
	movq	%rax, %rdx
	movq	16(%rbp), %rcx
	call	_ZSt18uninitialized_copyISt13move_iteratorIPiES1_ET0_T_S4_S3_
	addq	$32, %rsp
	popq	%rbp
	ret
	.seh_endproc
	.section	.text$_ZSt12__miter_baseIPiET_S1_,"x"
	.linkonce discard
	.globl	_ZSt12__miter_baseIPiET_S1_
	.def	_ZSt12__miter_baseIPiET_S1_;	.scl	2;	.type	32;	.endef
	.seh_proc	_ZSt12__miter_baseIPiET_S1_
_ZSt12__miter_baseIPiET_S1_:
.LFB2803:
	pushq	%rbp
	.seh_pushreg	%rbp
	movq	%rsp, %rbp
	.seh_setframe	%rbp, 0
	.seh_endprologue
	movq	%rcx, 16(%rbp)
	movq	16(%rbp), %rax
	popq	%rbp
	ret
	.seh_endproc
	.section	.text$_ZSt23__copy_move_backward_a2ILb1EPiS0_ET1_T0_S2_S1_,"x"
	.linkonce discard
	.globl	_ZSt23__copy_move_backward_a2ILb1EPiS0_ET1_T0_S2_S1_
	.def	_ZSt23__copy_move_backward_a2ILb1EPiS0_ET1_T0_S2_S1_;	.scl	2;	.type	32;	.endef
	.seh_proc	_ZSt23__copy_move_backward_a2ILb1EPiS0_ET1_T0_S2_S1_
_ZSt23__copy_move_backward_a2ILb1EPiS0_ET1_T0_S2_S1_:
.LFB2804:
	pushq	%rbp
	.seh_pushreg	%rbp
	pushq	%rsi
	.seh_pushreg	%rsi
	pushq	%rbx
	.seh_pushreg	%rbx
	movq	%rsp, %rbp
	.seh_setframe	%rbp, 0
	subq	$32, %rsp
	.seh_stackalloc	32
	.seh_endprologue
	movq	%rcx, 32(%rbp)
	movq	%rdx, 40(%rbp)
	movq	%r8, 48(%rbp)
	movq	48(%rbp), %rax
	movq	%rax, %rcx
	call	_ZSt12__niter_baseIPiET_S1_
	movq	%rax, %rsi
	movq	40(%rbp), %rax
	movq	%rax, %rcx
	call	_ZSt12__niter_baseIPiET_S1_
	movq	%rax, %rbx
	movq	32(%rbp), %rcx
	call	_ZSt12__niter_baseIPiET_S1_
	movq	%rsi, %r8
	movq	%rbx, %rdx
	movq	%rax, %rcx
	call	_ZSt22__copy_move_backward_aILb1EPiS0_ET1_T0_S2_S1_
	addq	$32, %rsp
	popq	%rbx
	popq	%rsi
	popq	%rbp
	ret
	.seh_endproc
	.section	.text$_ZSt12__niter_baseIPiET_S1_,"x"
	.linkonce discard
	.globl	_ZSt12__niter_baseIPiET_S1_
	.def	_ZSt12__niter_baseIPiET_S1_;	.scl	2;	.type	32;	.endef
	.seh_proc	_ZSt12__niter_baseIPiET_S1_
_ZSt12__niter_baseIPiET_S1_:
.LFB2805:
	pushq	%rbp
	.seh_pushreg	%rbp
	movq	%rsp, %rbp
	.seh_setframe	%rbp, 0
	.seh_endprologue
	movq	%rcx, 16(%rbp)
	movq	16(%rbp), %rax
	popq	%rbp
	ret
	.seh_endproc
	.section	.text$_ZSt8__fill_aIPiiEN9__gnu_cxx11__enable_ifIXsrSt11__is_scalarIT0_E7__valueEvE6__typeET_S8_RKS4_,"x"
	.linkonce discard
	.globl	_ZSt8__fill_aIPiiEN9__gnu_cxx11__enable_ifIXsrSt11__is_scalarIT0_E7__valueEvE6__typeET_S8_RKS4_
	.def	_ZSt8__fill_aIPiiEN9__gnu_cxx11__enable_ifIXsrSt11__is_scalarIT0_E7__valueEvE6__typeET_S8_RKS4_;	.scl	2;	.type	32;	.endef
	.seh_proc	_ZSt8__fill_aIPiiEN9__gnu_cxx11__enable_ifIXsrSt11__is_scalarIT0_E7__valueEvE6__typeET_S8_RKS4_
_ZSt8__fill_aIPiiEN9__gnu_cxx11__enable_ifIXsrSt11__is_scalarIT0_E7__valueEvE6__typeET_S8_RKS4_:
.LFB2806:
	pushq	%rbp
	.seh_pushreg	%rbp
	movq	%rsp, %rbp
	.seh_setframe	%rbp, 0
	subq	$16, %rsp
	.seh_stackalloc	16
	.seh_endprologue
	movq	%rcx, 16(%rbp)
	movq	%rdx, 24(%rbp)
	movq	%r8, 32(%rbp)
	movq	32(%rbp), %rax
	movl	(%rax), %eax
	movl	%eax, -4(%rbp)
.L383:
	movq	16(%rbp), %rax
	cmpq	24(%rbp), %rax
	je	.L384
	movq	16(%rbp), %rax
	movl	-4(%rbp), %edx
	movl	%edx, (%rax)
	addq	$4, 16(%rbp)
	jmp	.L383
.L384:
	nop
	addq	$16, %rsp
	popq	%rbp
	ret
	.seh_endproc
	.section	.text$_ZNKSt6vectorIiSaIiEE8max_sizeEv,"x"
	.linkonce discard
	.align 2
	.globl	_ZNKSt6vectorIiSaIiEE8max_sizeEv
	.def	_ZNKSt6vectorIiSaIiEE8max_sizeEv;	.scl	2;	.type	32;	.endef
	.seh_proc	_ZNKSt6vectorIiSaIiEE8max_sizeEv
_ZNKSt6vectorIiSaIiEE8max_sizeEv:
.LFB2807:
	pushq	%rbp
	.seh_pushreg	%rbp
	movq	%rsp, %rbp
	.seh_setframe	%rbp, 0
	subq	$32, %rsp
	.seh_stackalloc	32
	.seh_endprologue
	movq	%rcx, 16(%rbp)
	movq	16(%rbp), %rax
	movq	%rax, %rcx
	call	_ZNKSt12_Vector_baseIiSaIiEE19_M_get_Tp_allocatorEv
	movq	%rax, %rcx
	call	_ZNSt16allocator_traitsISaIiEE8max_sizeERKS0_
	addq	$32, %rsp
	popq	%rbp
	ret
	.seh_endproc
	.section	.text$_ZNSt16allocator_traitsISaIiEE8allocateERS0_m,"x"
	.linkonce discard
	.globl	_ZNSt16allocator_traitsISaIiEE8allocateERS0_m
	.def	_ZNSt16allocator_traitsISaIiEE8allocateERS0_m;	.scl	2;	.type	32;	.endef
	.seh_proc	_ZNSt16allocator_traitsISaIiEE8allocateERS0_m
_ZNSt16allocator_traitsISaIiEE8allocateERS0_m:
.LFB2808:
	pushq	%rbp
	.seh_pushreg	%rbp
	movq	%rsp, %rbp
	.seh_setframe	%rbp, 0
	subq	$32, %rsp
	.seh_stackalloc	32
	.seh_endprologue
	movq	%rcx, 16(%rbp)
	movq	%rdx, 24(%rbp)
	movq	24(%rbp), %rax
	movl	$0, %r8d
	movq	%rax, %rdx
	movq	16(%rbp), %rcx
	call	_ZN9__gnu_cxx13new_allocatorIiE8allocateEmPKv
	addq	$32, %rsp
	popq	%rbp
	ret
	.seh_endproc
	.section	.text$_ZSt32__make_move_if_noexcept_iteratorIiSt13move_iteratorIPiEET0_PT_,"x"
	.linkonce discard
	.globl	_ZSt32__make_move_if_noexcept_iteratorIiSt13move_iteratorIPiEET0_PT_
	.def	_ZSt32__make_move_if_noexcept_iteratorIiSt13move_iteratorIPiEET0_PT_;	.scl	2;	.type	32;	.endef
	.seh_proc	_ZSt32__make_move_if_noexcept_iteratorIiSt13move_iteratorIPiEET0_PT_
_ZSt32__make_move_if_noexcept_iteratorIiSt13move_iteratorIPiEET0_PT_:
.LFB2809:
	pushq	%rbp
	.seh_pushreg	%rbp
	movq	%rsp, %rbp
	.seh_setframe	%rbp, 0
	subq	$48, %rsp
	.seh_stackalloc	48
	.seh_endprologue
	movq	%rcx, 16(%rbp)
	leaq	-8(%rbp), %rax
	movq	16(%rbp), %rdx
	movq	%rax, %rcx
	call	_ZNSt13move_iteratorIPiEC1ES0_
	movq	-8(%rbp), %rax
	addq	$48, %rsp
	popq	%rbp
	ret
	.seh_endproc
	.section	.text$_ZNSaISt10_List_nodeIiEEC2Ev,"x"
	.linkonce discard
	.align 2
	.globl	_ZNSaISt10_List_nodeIiEEC2Ev
	.def	_ZNSaISt10_List_nodeIiEEC2Ev;	.scl	2;	.type	32;	.endef
	.seh_proc	_ZNSaISt10_List_nodeIiEEC2Ev
_ZNSaISt10_List_nodeIiEEC2Ev:
.LFB2811:
	pushq	%rbp
	.seh_pushreg	%rbp
	movq	%rsp, %rbp
	.seh_setframe	%rbp, 0
	subq	$32, %rsp
	.seh_stackalloc	32
	.seh_endprologue
	movq	%rcx, 16(%rbp)
	movq	16(%rbp), %rcx
	call	_ZN9__gnu_cxx13new_allocatorISt10_List_nodeIiEEC2Ev
	nop
	addq	$32, %rsp
	popq	%rbp
	ret
	.seh_endproc
	.section	.text$_ZN9__gnu_cxx16__aligned_membufIiE6_M_ptrEv,"x"
	.linkonce discard
	.align 2
	.globl	_ZN9__gnu_cxx16__aligned_membufIiE6_M_ptrEv
	.def	_ZN9__gnu_cxx16__aligned_membufIiE6_M_ptrEv;	.scl	2;	.type	32;	.endef
	.seh_proc	_ZN9__gnu_cxx16__aligned_membufIiE6_M_ptrEv
_ZN9__gnu_cxx16__aligned_membufIiE6_M_ptrEv:
.LFB2813:
	pushq	%rbp
	.seh_pushreg	%rbp
	movq	%rsp, %rbp
	.seh_setframe	%rbp, 0
	subq	$32, %rsp
	.seh_stackalloc	32
	.seh_endprologue
	movq	%rcx, 16(%rbp)
	movq	16(%rbp), %rcx
	call	_ZN9__gnu_cxx16__aligned_membufIiE7_M_addrEv
	addq	$32, %rsp
	popq	%rbp
	ret
	.seh_endproc
	.section	.text$_ZN9__gnu_cxx13new_allocatorISt10_List_nodeIiEE7destroyIiEEvPT_,"x"
	.linkonce discard
	.align 2
	.globl	_ZN9__gnu_cxx13new_allocatorISt10_List_nodeIiEE7destroyIiEEvPT_
	.def	_ZN9__gnu_cxx13new_allocatorISt10_List_nodeIiEE7destroyIiEEvPT_;	.scl	2;	.type	32;	.endef
	.seh_proc	_ZN9__gnu_cxx13new_allocatorISt10_List_nodeIiEE7destroyIiEEvPT_
_ZN9__gnu_cxx13new_allocatorISt10_List_nodeIiEE7destroyIiEEvPT_:
.LFB2814:
	pushq	%rbp
	.seh_pushreg	%rbp
	movq	%rsp, %rbp
	.seh_setframe	%rbp, 0
	.seh_endprologue
	movq	%rcx, 16(%rbp)
	movq	%rdx, 24(%rbp)
	nop
	popq	%rbp
	ret
	.seh_endproc
	.section	.text$_ZNSt16allocator_traitsISaISt10_List_nodeIiEEE10deallocateERS2_PS1_m,"x"
	.linkonce discard
	.globl	_ZNSt16allocator_traitsISaISt10_List_nodeIiEEE10deallocateERS2_PS1_m
	.def	_ZNSt16allocator_traitsISaISt10_List_nodeIiEEE10deallocateERS2_PS1_m;	.scl	2;	.type	32;	.endef
	.seh_proc	_ZNSt16allocator_traitsISaISt10_List_nodeIiEEE10deallocateERS2_PS1_m
_ZNSt16allocator_traitsISaISt10_List_nodeIiEEE10deallocateERS2_PS1_m:
.LFB2815:
	pushq	%rbp
	.seh_pushreg	%rbp
	movq	%rsp, %rbp
	.seh_setframe	%rbp, 0
	subq	$32, %rsp
	.seh_stackalloc	32
	.seh_endprologue
	movq	%rcx, 16(%rbp)
	movq	%rdx, 24(%rbp)
	movq	%r8, 32(%rbp)
	movq	32(%rbp), %rdx
	movq	24(%rbp), %rax
	movq	%rdx, %r8
	movq	%rax, %rdx
	movq	16(%rbp), %rcx
	call	_ZN9__gnu_cxx13new_allocatorISt10_List_nodeIiEE10deallocateEPS2_m
	nop
	addq	$32, %rsp
	popq	%rbp
	ret
	.seh_endproc
	.section	.text$_ZN9__gnu_cxx13new_allocatorIiEC2ERKS1_,"x"
	.linkonce discard
	.align 2
	.globl	_ZN9__gnu_cxx13new_allocatorIiEC2ERKS1_
	.def	_ZN9__gnu_cxx13new_allocatorIiEC2ERKS1_;	.scl	2;	.type	32;	.endef
	.seh_proc	_ZN9__gnu_cxx13new_allocatorIiEC2ERKS1_
_ZN9__gnu_cxx13new_allocatorIiEC2ERKS1_:
.LFB2817:
	pushq	%rbp
	.seh_pushreg	%rbp
	movq	%rsp, %rbp
	.seh_setframe	%rbp, 0
	.seh_endprologue
	movq	%rcx, 16(%rbp)
	movq	%rdx, 24(%rbp)
	nop
	popq	%rbp
	ret
	.seh_endproc
	.section	.text$_ZNSt20__uninitialized_copyILb1EE13__uninit_copyIN9__gnu_cxx17__normal_iteratorIPKiSt6vectorIiSaIiEEEEPiEET0_T_SC_SB_,"x"
	.linkonce discard
	.globl	_ZNSt20__uninitialized_copyILb1EE13__uninit_copyIN9__gnu_cxx17__normal_iteratorIPKiSt6vectorIiSaIiEEEEPiEET0_T_SC_SB_
	.def	_ZNSt20__uninitialized_copyILb1EE13__uninit_copyIN9__gnu_cxx17__normal_iteratorIPKiSt6vectorIiSaIiEEEEPiEET0_T_SC_SB_;	.scl	2;	.type	32;	.endef
	.seh_proc	_ZNSt20__uninitialized_copyILb1EE13__uninit_copyIN9__gnu_cxx17__normal_iteratorIPKiSt6vectorIiSaIiEEEEPiEET0_T_SC_SB_
_ZNSt20__uninitialized_copyILb1EE13__uninit_copyIN9__gnu_cxx17__normal_iteratorIPKiSt6vectorIiSaIiEEEEPiEET0_T_SC_SB_:
.LFB2819:
	pushq	%rbp
	.seh_pushreg	%rbp
	movq	%rsp, %rbp
	.seh_setframe	%rbp, 0
	subq	$32, %rsp
	.seh_stackalloc	32
	.seh_endprologue
	movq	%rcx, 16(%rbp)
	movq	%rdx, 24(%rbp)
	movq	%r8, 32(%rbp)
	movq	32(%rbp), %rdx
	movq	24(%rbp), %rax
	movq	%rdx, %r8
	movq	%rax, %rdx
	movq	16(%rbp), %rcx
	call	_ZSt4copyIN9__gnu_cxx17__normal_iteratorIPKiSt6vectorIiSaIiEEEEPiET0_T_SA_S9_
	addq	$32, %rsp
	popq	%rbp
	ret
	.seh_endproc
	.section	.text$_ZNSt10_List_baseIiSaIiEE11_M_get_nodeEv,"x"
	.linkonce discard
	.align 2
	.globl	_ZNSt10_List_baseIiSaIiEE11_M_get_nodeEv
	.def	_ZNSt10_List_baseIiSaIiEE11_M_get_nodeEv;	.scl	2;	.type	32;	.endef
	.seh_proc	_ZNSt10_List_baseIiSaIiEE11_M_get_nodeEv
_ZNSt10_List_baseIiSaIiEE11_M_get_nodeEv:
.LFB2820:
	pushq	%rbp
	.seh_pushreg	%rbp
	movq	%rsp, %rbp
	.seh_setframe	%rbp, 0
	subq	$32, %rsp
	.seh_stackalloc	32
	.seh_endprologue
	movq	%rcx, 16(%rbp)
	movq	16(%rbp), %rax
	movl	$1, %edx
	movq	%rax, %rcx
	call	_ZNSt16allocator_traitsISaISt10_List_nodeIiEEE8allocateERS2_m
	addq	$32, %rsp
	popq	%rbp
	ret
	.seh_endproc
	.section	.text$_ZNSt15__allocated_ptrISaISt10_List_nodeIiEEEC1ERS2_PS1_,"x"
	.linkonce discard
	.align 2
	.globl	_ZNSt15__allocated_ptrISaISt10_List_nodeIiEEEC1ERS2_PS1_
	.def	_ZNSt15__allocated_ptrISaISt10_List_nodeIiEEEC1ERS2_PS1_;	.scl	2;	.type	32;	.endef
	.seh_proc	_ZNSt15__allocated_ptrISaISt10_List_nodeIiEEEC1ERS2_PS1_
_ZNSt15__allocated_ptrISaISt10_List_nodeIiEEEC1ERS2_PS1_:
.LFB2823:
	pushq	%rbp
	.seh_pushreg	%rbp
	movq	%rsp, %rbp
	.seh_setframe	%rbp, 0
	subq	$32, %rsp
	.seh_stackalloc	32
	.seh_endprologue
	movq	%rcx, 16(%rbp)
	movq	%rdx, 24(%rbp)
	movq	%r8, 32(%rbp)
	movq	24(%rbp), %rax
	movq	%rax, %rcx
	call	_ZSt11__addressofISaISt10_List_nodeIiEEEPT_RS3_
	movq	%rax, %rdx
	movq	16(%rbp), %rax
	movq	%rdx, (%rax)
	movq	16(%rbp), %rax
	movq	32(%rbp), %rdx
	movq	%rdx, 8(%rax)
	nop
	addq	$32, %rsp
	popq	%rbp
	ret
	.seh_endproc
	.section	.text$_ZNSt15__allocated_ptrISaISt10_List_nodeIiEEED1Ev,"x"
	.linkonce discard
	.align 2
	.globl	_ZNSt15__allocated_ptrISaISt10_List_nodeIiEEED1Ev
	.def	_ZNSt15__allocated_ptrISaISt10_List_nodeIiEEED1Ev;	.scl	2;	.type	32;	.endef
	.seh_proc	_ZNSt15__allocated_ptrISaISt10_List_nodeIiEEED1Ev
_ZNSt15__allocated_ptrISaISt10_List_nodeIiEEED1Ev:
.LFB2826:
	pushq	%rbp
	.seh_pushreg	%rbp
	movq	%rsp, %rbp
	.seh_setframe	%rbp, 0
	subq	$32, %rsp
	.seh_stackalloc	32
	.seh_endprologue
	movq	%rcx, 16(%rbp)
	movq	16(%rbp), %rax
	movq	8(%rax), %rax
	testq	%rax, %rax
	je	.L404
	movq	16(%rbp), %rax
	movq	8(%rax), %rdx
	movq	16(%rbp), %rax
	movq	(%rax), %rax
	movl	$1, %r8d
	movq	%rax, %rcx
	call	_ZNSt16allocator_traitsISaISt10_List_nodeIiEEE10deallocateERS2_PS1_m
.L404:
	nop
	addq	$32, %rsp
	popq	%rbp
	ret
	.seh_endproc
	.section	.text$_ZNSt16allocator_traitsISaISt10_List_nodeIiEEE9constructIiJiEEEvRS2_PT_DpOT0_,"x"
	.linkonce discard
	.globl	_ZNSt16allocator_traitsISaISt10_List_nodeIiEEE9constructIiJiEEEvRS2_PT_DpOT0_
	.def	_ZNSt16allocator_traitsISaISt10_List_nodeIiEEE9constructIiJiEEEvRS2_PT_DpOT0_;	.scl	2;	.type	32;	.endef
	.seh_proc	_ZNSt16allocator_traitsISaISt10_List_nodeIiEEE9constructIiJiEEEvRS2_PT_DpOT0_
_ZNSt16allocator_traitsISaISt10_List_nodeIiEEE9constructIiJiEEEvRS2_PT_DpOT0_:
.LFB2827:
	pushq	%rbp
	.seh_pushreg	%rbp
	movq	%rsp, %rbp
	.seh_setframe	%rbp, 0
	subq	$32, %rsp
	.seh_stackalloc	32
	.seh_endprologue
	movq	%rcx, 16(%rbp)
	movq	%rdx, 24(%rbp)
	movq	%r8, 32(%rbp)
	movq	32(%rbp), %rax
	movq	%rax, %rcx
	call	_ZSt7forwardIiEOT_RNSt16remove_referenceIS0_E4typeE
	movq	%rax, %rdx
	movq	24(%rbp), %rax
	movq	%rdx, %r8
	movq	%rax, %rdx
	movq	16(%rbp), %rcx
	call	_ZN9__gnu_cxx13new_allocatorISt10_List_nodeIiEE9constructIiJiEEEvPT_DpOT0_
	nop
	addq	$32, %rsp
	popq	%rbp
	ret
	.seh_endproc
	.section	.text$_ZNSt15__allocated_ptrISaISt10_List_nodeIiEEEaSEDn,"x"
	.linkonce discard
	.align 2
	.globl	_ZNSt15__allocated_ptrISaISt10_List_nodeIiEEEaSEDn
	.def	_ZNSt15__allocated_ptrISaISt10_List_nodeIiEEEaSEDn;	.scl	2;	.type	32;	.endef
	.seh_proc	_ZNSt15__allocated_ptrISaISt10_List_nodeIiEEEaSEDn
_ZNSt15__allocated_ptrISaISt10_List_nodeIiEEEaSEDn:
.LFB2828:
	pushq	%rbp
	.seh_pushreg	%rbp
	movq	%rsp, %rbp
	.seh_setframe	%rbp, 0
	.seh_endprologue
	movq	%rcx, 16(%rbp)
	movq	%rdx, 24(%rbp)
	movq	16(%rbp), %rax
	movq	$0, 8(%rax)
	movq	16(%rbp), %rax
	popq	%rbp
	ret
	.seh_endproc
	.section	.text$_ZN9__gnu_cxx13new_allocatorISt6vectorIiSaIiEEEC2ERKS4_,"x"
	.linkonce discard
	.align 2
	.globl	_ZN9__gnu_cxx13new_allocatorISt6vectorIiSaIiEEEC2ERKS4_
	.def	_ZN9__gnu_cxx13new_allocatorISt6vectorIiSaIiEEEC2ERKS4_;	.scl	2;	.type	32;	.endef
	.seh_proc	_ZN9__gnu_cxx13new_allocatorISt6vectorIiSaIiEEEC2ERKS4_
_ZN9__gnu_cxx13new_allocatorISt6vectorIiSaIiEEEC2ERKS4_:
.LFB2830:
	pushq	%rbp
	.seh_pushreg	%rbp
	movq	%rsp, %rbp
	.seh_setframe	%rbp, 0
	.seh_endprologue
	movq	%rcx, 16(%rbp)
	movq	%rdx, 24(%rbp)
	nop
	popq	%rbp
	ret
	.seh_endproc
	.section	.text$_ZNSt20__uninitialized_copyILb0EE13__uninit_copyIN9__gnu_cxx17__normal_iteratorIPKSt6vectorIiSaIiEES4_IS6_SaIS6_EEEEPS6_EET0_T_SE_SD_,"x"
	.linkonce discard
	.globl	_ZNSt20__uninitialized_copyILb0EE13__uninit_copyIN9__gnu_cxx17__normal_iteratorIPKSt6vectorIiSaIiEES4_IS6_SaIS6_EEEEPS6_EET0_T_SE_SD_
	.def	_ZNSt20__uninitialized_copyILb0EE13__uninit_copyIN9__gnu_cxx17__normal_iteratorIPKSt6vectorIiSaIiEES4_IS6_SaIS6_EEEEPS6_EET0_T_SE_SD_;	.scl	2;	.type	32;	.endef
	.seh_proc	_ZNSt20__uninitialized_copyILb0EE13__uninit_copyIN9__gnu_cxx17__normal_iteratorIPKSt6vectorIiSaIiEES4_IS6_SaIS6_EEEEPS6_EET0_T_SE_SD_
_ZNSt20__uninitialized_copyILb0EE13__uninit_copyIN9__gnu_cxx17__normal_iteratorIPKSt6vectorIiSaIiEES4_IS6_SaIS6_EEEEPS6_EET0_T_SE_SD_:
.LFB2832:
	pushq	%rbp
	.seh_pushreg	%rbp
	pushq	%rbx
	.seh_pushreg	%rbx
	subq	$56, %rsp
	.seh_stackalloc	56
	leaq	128(%rsp), %rbp
	.seh_setframe	%rbp, 128
	.seh_endprologue
	movq	%rcx, -48(%rbp)
	movq	%rdx, -40(%rbp)
	movq	%r8, -32(%rbp)
	movq	-32(%rbp), %rax
	movq	%rax, -88(%rbp)
.L411:
	leaq	-40(%rbp), %rax
	movq	%rax, %rdx
	leaq	-48(%rbp), %rcx
	call	_ZN9__gnu_cxxneIPKSt6vectorIiSaIiEES1_IS3_SaIS3_EEEEbRKNS_17__normal_iteratorIT_T0_EESD_
	testb	%al, %al
	je	.L410
	leaq	-48(%rbp), %rcx
	call	_ZNK9__gnu_cxx17__normal_iteratorIPKSt6vectorIiSaIiEES1_IS3_SaIS3_EEEdeEv
	movq	%rax, %rbx
	movq	-88(%rbp), %rax
	movq	%rax, %rcx
	call	_ZSt11__addressofISt6vectorIiSaIiEEEPT_RS3_
	movq	%rbx, %rdx
	movq	%rax, %rcx
.LEHB42:
	call	_ZSt10_ConstructISt6vectorIiSaIiEEJRKS2_EEvPT_DpOT0_
.LEHE42:
	leaq	-48(%rbp), %rcx
	call	_ZN9__gnu_cxx17__normal_iteratorIPKSt6vectorIiSaIiEES1_IS3_SaIS3_EEEppEv
	addq	$24, -88(%rbp)
	jmp	.L411
.L410:
	movq	-88(%rbp), %rax
	jmp	.L417
.L415:
	movq	%rax, %rcx
	call	__cxa_begin_catch
	movq	-88(%rbp), %rdx
	movq	-32(%rbp), %rax
	movq	%rax, %rcx
.LEHB43:
	call	_ZSt8_DestroyIPSt6vectorIiSaIiEEEvT_S4_
	call	__cxa_rethrow
.LEHE43:
.L416:
	movq	%rax, %rbx
	call	__cxa_end_catch
	movq	%rbx, %rax
	movq	%rax, %rcx
.LEHB44:
	call	_Unwind_Resume
.LEHE44:
.L417:
	addq	$56, %rsp
	popq	%rbx
	popq	%rbp
	ret
	.seh_handler	__gxx_personality_seh0, @unwind, @except
	.seh_handlerdata
	.align 4
.LLSDA2832:
	.byte	0xff
	.byte	0x9b
	.uleb128 .LLSDATT2832-.LLSDATTD2832
.LLSDATTD2832:
	.byte	0x1
	.uleb128 .LLSDACSE2832-.LLSDACSB2832
.LLSDACSB2832:
	.uleb128 .LEHB42-.LFB2832
	.uleb128 .LEHE42-.LEHB42
	.uleb128 .L415-.LFB2832
	.uleb128 0x1
	.uleb128 .LEHB43-.LFB2832
	.uleb128 .LEHE43-.LEHB43
	.uleb128 .L416-.LFB2832
	.uleb128 0
	.uleb128 .LEHB44-.LFB2832
	.uleb128 .LEHE44-.LEHB44
	.uleb128 0
	.uleb128 0
.LLSDACSE2832:
	.byte	0x1
	.byte	0
	.align 4
	.long	0

.LLSDATT2832:
	.section	.text$_ZNSt20__uninitialized_copyILb0EE13__uninit_copyIN9__gnu_cxx17__normal_iteratorIPKSt6vectorIiSaIiEES4_IS6_SaIS6_EEEEPS6_EET0_T_SE_SD_,"x"
	.linkonce discard
	.seh_endproc
	.section	.text$_ZN9__gnu_cxx13new_allocatorISt6vectorIiSaIiEEEC2Ev,"x"
	.linkonce discard
	.align 2
	.globl	_ZN9__gnu_cxx13new_allocatorISt6vectorIiSaIiEEEC2Ev
	.def	_ZN9__gnu_cxx13new_allocatorISt6vectorIiSaIiEEEC2Ev;	.scl	2;	.type	32;	.endef
	.seh_proc	_ZN9__gnu_cxx13new_allocatorISt6vectorIiSaIiEEEC2Ev
_ZN9__gnu_cxx13new_allocatorISt6vectorIiSaIiEEEC2Ev:
.LFB2848:
	pushq	%rbp
	.seh_pushreg	%rbp
	movq	%rsp, %rbp
	.seh_setframe	%rbp, 0
	.seh_endprologue
	movq	%rcx, 16(%rbp)
	nop
	popq	%rbp
	ret
	.seh_endproc
	.section	.text$_ZN9__gnu_cxx13new_allocatorISt6vectorIiSaIiEEE10deallocateEPS3_m,"x"
	.linkonce discard
	.align 2
	.globl	_ZN9__gnu_cxx13new_allocatorISt6vectorIiSaIiEEE10deallocateEPS3_m
	.def	_ZN9__gnu_cxx13new_allocatorISt6vectorIiSaIiEEE10deallocateEPS3_m;	.scl	2;	.type	32;	.endef
	.seh_proc	_ZN9__gnu_cxx13new_allocatorISt6vectorIiSaIiEEE10deallocateEPS3_m
_ZN9__gnu_cxx13new_allocatorISt6vectorIiSaIiEEE10deallocateEPS3_m:
.LFB2850:
	pushq	%rbp
	.seh_pushreg	%rbp
	movq	%rsp, %rbp
	.seh_setframe	%rbp, 0
	subq	$32, %rsp
	.seh_stackalloc	32
	.seh_endprologue
	movq	%rcx, 16(%rbp)
	movq	%rdx, 24(%rbp)
	movq	%r8, 32(%rbp)
	movq	24(%rbp), %rax
	movq	%rax, %rcx
	call	_ZdlPv
	nop
	addq	$32, %rsp
	popq	%rbp
	ret
	.seh_endproc
	.section	.text$_ZSt11__addressofISt6vectorIiSaIiEEEPT_RS3_,"x"
	.linkonce discard
	.globl	_ZSt11__addressofISt6vectorIiSaIiEEEPT_RS3_
	.def	_ZSt11__addressofISt6vectorIiSaIiEEEPT_RS3_;	.scl	2;	.type	32;	.endef
	.seh_proc	_ZSt11__addressofISt6vectorIiSaIiEEEPT_RS3_
_ZSt11__addressofISt6vectorIiSaIiEEEPT_RS3_:
.LFB2851:
	pushq	%rbp
	.seh_pushreg	%rbp
	movq	%rsp, %rbp
	.seh_setframe	%rbp, 0
	.seh_endprologue
	movq	%rcx, 16(%rbp)
	movq	16(%rbp), %rax
	popq	%rbp
	ret
	.seh_endproc
	.section	.text$_ZSt8_DestroyISt6vectorIiSaIiEEEvPT_,"x"
	.linkonce discard
	.globl	_ZSt8_DestroyISt6vectorIiSaIiEEEvPT_
	.def	_ZSt8_DestroyISt6vectorIiSaIiEEEvPT_;	.scl	2;	.type	32;	.endef
	.seh_proc	_ZSt8_DestroyISt6vectorIiSaIiEEEvPT_
_ZSt8_DestroyISt6vectorIiSaIiEEEvPT_:
.LFB2852:
	pushq	%rbp
	.seh_pushreg	%rbp
	movq	%rsp, %rbp
	.seh_setframe	%rbp, 0
	subq	$32, %rsp
	.seh_stackalloc	32
	.seh_endprologue
	movq	%rcx, 16(%rbp)
	movq	16(%rbp), %rcx
	call	_ZNSt6vectorIiSaIiEED1Ev
	nop
	addq	$32, %rsp
	popq	%rbp
	ret
	.seh_endproc
	.section	.text$_ZN9__gnu_cxx13new_allocatorIiE10deallocateEPim,"x"
	.linkonce discard
	.align 2
	.globl	_ZN9__gnu_cxx13new_allocatorIiE10deallocateEPim
	.def	_ZN9__gnu_cxx13new_allocatorIiE10deallocateEPim;	.scl	2;	.type	32;	.endef
	.seh_proc	_ZN9__gnu_cxx13new_allocatorIiE10deallocateEPim
_ZN9__gnu_cxx13new_allocatorIiE10deallocateEPim:
.LFB2853:
	pushq	%rbp
	.seh_pushreg	%rbp
	movq	%rsp, %rbp
	.seh_setframe	%rbp, 0
	subq	$32, %rsp
	.seh_stackalloc	32
	.seh_endprologue
	movq	%rcx, 16(%rbp)
	movq	%rdx, 24(%rbp)
	movq	%r8, 32(%rbp)
	movq	24(%rbp), %rax
	movq	%rax, %rcx
	call	_ZdlPv
	nop
	addq	$32, %rsp
	popq	%rbp
	ret
	.seh_endproc
	.section	.text$_ZNSt22__uninitialized_fill_nILb1EE15__uninit_fill_nIPimiEET_S3_T0_RKT1_,"x"
	.linkonce discard
	.globl	_ZNSt22__uninitialized_fill_nILb1EE15__uninit_fill_nIPimiEET_S3_T0_RKT1_
	.def	_ZNSt22__uninitialized_fill_nILb1EE15__uninit_fill_nIPimiEET_S3_T0_RKT1_;	.scl	2;	.type	32;	.endef
	.seh_proc	_ZNSt22__uninitialized_fill_nILb1EE15__uninit_fill_nIPimiEET_S3_T0_RKT1_
_ZNSt22__uninitialized_fill_nILb1EE15__uninit_fill_nIPimiEET_S3_T0_RKT1_:
.LFB2854:
	pushq	%rbp
	.seh_pushreg	%rbp
	movq	%rsp, %rbp
	.seh_setframe	%rbp, 0
	subq	$32, %rsp
	.seh_stackalloc	32
	.seh_endprologue
	movq	%rcx, 16(%rbp)
	movq	%rdx, 24(%rbp)
	movq	%r8, 32(%rbp)
	movq	32(%rbp), %rdx
	movq	24(%rbp), %rax
	movq	%rdx, %r8
	movq	%rax, %rdx
	movq	16(%rbp), %rcx
	call	_ZSt6fill_nIPimiET_S1_T0_RKT1_
	addq	$32, %rsp
	popq	%rbp
	ret
	.seh_endproc
	.section	.text$_ZNSt14pointer_traitsIPSt6vectorIiSaIiEEE10pointer_toERS2_,"x"
	.linkonce discard
	.globl	_ZNSt14pointer_traitsIPSt6vectorIiSaIiEEE10pointer_toERS2_
	.def	_ZNSt14pointer_traitsIPSt6vectorIiSaIiEEE10pointer_toERS2_;	.scl	2;	.type	32;	.endef
	.seh_proc	_ZNSt14pointer_traitsIPSt6vectorIiSaIiEEE10pointer_toERS2_
_ZNSt14pointer_traitsIPSt6vectorIiSaIiEEE10pointer_toERS2_:
.LFB2855:
	pushq	%rbp
	.seh_pushreg	%rbp
	movq	%rsp, %rbp
	.seh_setframe	%rbp, 0
	subq	$32, %rsp
	.seh_stackalloc	32
	.seh_endprologue
	movq	%rcx, 16(%rbp)
	movq	16(%rbp), %rcx
	call	_ZSt9addressofISt6vectorIiSaIiEEEPT_RS3_
	addq	$32, %rsp
	popq	%rbp
	ret
	.seh_endproc
	.section	.text$_ZN9__gnu_cxx13new_allocatorISt6vectorIiSaIiEEE9constructIS3_JRKS3_EEEvPT_DpOT0_,"x"
	.linkonce discard
	.align 2
	.globl	_ZN9__gnu_cxx13new_allocatorISt6vectorIiSaIiEEE9constructIS3_JRKS3_EEEvPT_DpOT0_
	.def	_ZN9__gnu_cxx13new_allocatorISt6vectorIiSaIiEEE9constructIS3_JRKS3_EEEvPT_DpOT0_;	.scl	2;	.type	32;	.endef
	.seh_proc	_ZN9__gnu_cxx13new_allocatorISt6vectorIiSaIiEEE9constructIS3_JRKS3_EEEvPT_DpOT0_
_ZN9__gnu_cxx13new_allocatorISt6vectorIiSaIiEEE9constructIS3_JRKS3_EEEvPT_DpOT0_:
.LFB2856:
	pushq	%rbp
	.seh_pushreg	%rbp
	pushq	%rdi
	.seh_pushreg	%rdi
	pushq	%rsi
	.seh_pushreg	%rsi
	pushq	%rbx
	.seh_pushreg	%rbx
	subq	$40, %rsp
	.seh_stackalloc	40
	leaq	128(%rsp), %rbp
	.seh_setframe	%rbp, 128
	.seh_endprologue
	movq	%rcx, -48(%rbp)
	movq	%rdx, -40(%rbp)
	movq	%r8, -32(%rbp)
	movq	-32(%rbp), %rax
	movq	%rax, %rcx
	call	_ZSt7forwardIRKSt6vectorIiSaIiEEEOT_RNSt16remove_referenceIS5_E4typeE
	movq	%rax, %rdi
	movq	-40(%rbp), %rsi
	movq	%rsi, %rdx
	movl	$24, %ecx
	call	_ZnwmPv
	movq	%rax, %rbx
	testq	%rbx, %rbx
	je	.L433
	movq	%rdi, %rdx
	movq	%rbx, %rcx
.LEHB45:
	call	_ZNSt6vectorIiSaIiEEC1ERKS1_
.LEHE45:
	jmp	.L433
.L432:
	movq	%rax, %rdi
	movq	%rsi, %rdx
	movq	%rbx, %rcx
	call	_ZdlPvS_
	movq	%rdi, %rax
	movq	%rax, %rcx
.LEHB46:
	call	_Unwind_Resume
.LEHE46:
.L433:
	nop
	addq	$40, %rsp
	popq	%rbx
	popq	%rsi
	popq	%rdi
	popq	%rbp
	ret
	.seh_handler	__gxx_personality_seh0, @unwind, @except
	.seh_handlerdata
.LLSDA2856:
	.byte	0xff
	.byte	0xff
	.byte	0x1
	.uleb128 .LLSDACSE2856-.LLSDACSB2856
.LLSDACSB2856:
	.uleb128 .LEHB45-.LFB2856
	.uleb128 .LEHE45-.LEHB45
	.uleb128 .L432-.LFB2856
	.uleb128 0
	.uleb128 .LEHB46-.LFB2856
	.uleb128 .LEHE46-.LEHB46
	.uleb128 0
	.uleb128 0
.LLSDACSE2856:
	.section	.text$_ZN9__gnu_cxx13new_allocatorISt6vectorIiSaIiEEE9constructIS3_JRKS3_EEEvPT_DpOT0_,"x"
	.linkonce discard
	.seh_endproc
	.section	.text$_ZN9__gnu_cxx13new_allocatorISt6vectorIiSaIiEEE7destroyIS3_EEvPT_,"x"
	.linkonce discard
	.align 2
	.globl	_ZN9__gnu_cxx13new_allocatorISt6vectorIiSaIiEEE7destroyIS3_EEvPT_
	.def	_ZN9__gnu_cxx13new_allocatorISt6vectorIiSaIiEEE7destroyIS3_EEvPT_;	.scl	2;	.type	32;	.endef
	.seh_proc	_ZN9__gnu_cxx13new_allocatorISt6vectorIiSaIiEEE7destroyIS3_EEvPT_
_ZN9__gnu_cxx13new_allocatorISt6vectorIiSaIiEEE7destroyIS3_EEvPT_:
.LFB2857:
	pushq	%rbp
	.seh_pushreg	%rbp
	movq	%rsp, %rbp
	.seh_setframe	%rbp, 0
	subq	$32, %rsp
	.seh_stackalloc	32
	.seh_endprologue
	movq	%rcx, 16(%rbp)
	movq	%rdx, 24(%rbp)
	movq	24(%rbp), %rax
	movq	%rax, %rcx
	call	_ZNSt6vectorIiSaIiEED1Ev
	nop
	addq	$32, %rsp
	popq	%rbp
	ret
	.seh_endproc
	.section	.text$_ZNSt13move_iteratorIPSt6vectorIiSaIiEEEC1ES3_,"x"
	.linkonce discard
	.align 2
	.globl	_ZNSt13move_iteratorIPSt6vectorIiSaIiEEEC1ES3_
	.def	_ZNSt13move_iteratorIPSt6vectorIiSaIiEEEC1ES3_;	.scl	2;	.type	32;	.endef
	.seh_proc	_ZNSt13move_iteratorIPSt6vectorIiSaIiEEEC1ES3_
_ZNSt13move_iteratorIPSt6vectorIiSaIiEEEC1ES3_:
.LFB2860:
	pushq	%rbp
	.seh_pushreg	%rbp
	movq	%rsp, %rbp
	.seh_setframe	%rbp, 0
	.seh_endprologue
	movq	%rcx, 16(%rbp)
	movq	%rdx, 24(%rbp)
	movq	16(%rbp), %rax
	movq	24(%rbp), %rdx
	movq	%rdx, (%rax)
	nop
	popq	%rbp
	ret
	.seh_endproc
	.section	.text$_ZN9__gnu_cxx14__alloc_traitsISaIiEE15_S_always_equalEv,"x"
	.linkonce discard
	.globl	_ZN9__gnu_cxx14__alloc_traitsISaIiEE15_S_always_equalEv
	.def	_ZN9__gnu_cxx14__alloc_traitsISaIiEE15_S_always_equalEv;	.scl	2;	.type	32;	.endef
	.seh_proc	_ZN9__gnu_cxx14__alloc_traitsISaIiEE15_S_always_equalEv
_ZN9__gnu_cxx14__alloc_traitsISaIiEE15_S_always_equalEv:
.LFB2864:
	pushq	%rbp
	.seh_pushreg	%rbp
	movq	%rsp, %rbp
	.seh_setframe	%rbp, 0
	.seh_endprologue
	movl	$1, %eax
	popq	%rbp
	ret
	.seh_endproc
	.section	.text$_ZSt18uninitialized_copyISt13move_iteratorIPSt6vectorIiSaIiEEES4_ET0_T_S7_S6_,"x"
	.linkonce discard
	.globl	_ZSt18uninitialized_copyISt13move_iteratorIPSt6vectorIiSaIiEEES4_ET0_T_S7_S6_
	.def	_ZSt18uninitialized_copyISt13move_iteratorIPSt6vectorIiSaIiEEES4_ET0_T_S7_S6_;	.scl	2;	.type	32;	.endef
	.seh_proc	_ZSt18uninitialized_copyISt13move_iteratorIPSt6vectorIiSaIiEEES4_ET0_T_S7_S6_
_ZSt18uninitialized_copyISt13move_iteratorIPSt6vectorIiSaIiEEES4_ET0_T_S7_S6_:
.LFB2861:
	pushq	%rbp
	.seh_pushreg	%rbp
	movq	%rsp, %rbp
	.seh_setframe	%rbp, 0
	subq	$48, %rsp
	.seh_stackalloc	48
	.seh_endprologue
	movq	%rcx, 16(%rbp)
	movq	%rdx, 24(%rbp)
	movq	%r8, 32(%rbp)
	movb	$1, -1(%rbp)
	movq	32(%rbp), %rdx
	movq	24(%rbp), %rax
	movq	%rdx, %r8
	movq	%rax, %rdx
	movq	16(%rbp), %rcx
	call	_ZNSt20__uninitialized_copyILb0EE13__uninit_copyISt13move_iteratorIPSt6vectorIiSaIiEEES6_EET0_T_S9_S8_
	addq	$48, %rsp
	popq	%rbp
	ret
	.seh_endproc
	.section	.text$_ZSt22__copy_move_backward_aILb1EPSt6vectorIiSaIiEES3_ET1_T0_S5_S4_,"x"
	.linkonce discard
	.globl	_ZSt22__copy_move_backward_aILb1EPSt6vectorIiSaIiEES3_ET1_T0_S5_S4_
	.def	_ZSt22__copy_move_backward_aILb1EPSt6vectorIiSaIiEES3_ET1_T0_S5_S4_;	.scl	2;	.type	32;	.endef
	.seh_proc	_ZSt22__copy_move_backward_aILb1EPSt6vectorIiSaIiEES3_ET1_T0_S5_S4_
_ZSt22__copy_move_backward_aILb1EPSt6vectorIiSaIiEES3_ET1_T0_S5_S4_:
.LFB2865:
	pushq	%rbp
	.seh_pushreg	%rbp
	movq	%rsp, %rbp
	.seh_setframe	%rbp, 0
	subq	$48, %rsp
	.seh_stackalloc	48
	.seh_endprologue
	movq	%rcx, 16(%rbp)
	movq	%rdx, 24(%rbp)
	movq	%r8, 32(%rbp)
	movb	$0, -1(%rbp)
	movq	32(%rbp), %rdx
	movq	24(%rbp), %rax
	movq	%rdx, %r8
	movq	%rax, %rdx
	movq	16(%rbp), %rcx
	call	_ZNSt20__copy_move_backwardILb1ELb0ESt26random_access_iterator_tagE13__copy_move_bIPSt6vectorIiSaIiEES6_EET0_T_S8_S7_
	addq	$48, %rsp
	popq	%rbp
	ret
	.seh_endproc
	.section	.text$_ZN9__gnu_cxx14__alloc_traitsISaIiEE27_S_propagate_on_copy_assignEv,"x"
	.linkonce discard
	.globl	_ZN9__gnu_cxx14__alloc_traitsISaIiEE27_S_propagate_on_copy_assignEv
	.def	_ZN9__gnu_cxx14__alloc_traitsISaIiEE27_S_propagate_on_copy_assignEv;	.scl	2;	.type	32;	.endef
	.seh_proc	_ZN9__gnu_cxx14__alloc_traitsISaIiEE27_S_propagate_on_copy_assignEv
_ZN9__gnu_cxx14__alloc_traitsISaIiEE27_S_propagate_on_copy_assignEv:
.LFB2867:
	pushq	%rbp
	.seh_pushreg	%rbp
	movq	%rsp, %rbp
	.seh_setframe	%rbp, 0
	.seh_endprologue
	movl	$0, %eax
	popq	%rbp
	ret
	.seh_endproc
	.section	.text$_ZNSt6vectorIiSaIiEEaSERKS1_,"x"
	.linkonce discard
	.align 2
	.globl	_ZNSt6vectorIiSaIiEEaSERKS1_
	.def	_ZNSt6vectorIiSaIiEEaSERKS1_;	.scl	2;	.type	32;	.endef
	.seh_proc	_ZNSt6vectorIiSaIiEEaSERKS1_
_ZNSt6vectorIiSaIiEEaSERKS1_:
.LFB2866:
	pushq	%rbp
	.seh_pushreg	%rbp
	pushq	%r12
	.seh_pushreg	%r12
	pushq	%rdi
	.seh_pushreg	%rdi
	pushq	%rsi
	.seh_pushreg	%rsi
	pushq	%rbx
	.seh_pushreg	%rbx
	movq	%rsp, %rbp
	.seh_setframe	%rbp, 0
	subq	$48, %rsp
	.seh_stackalloc	48
	.seh_endprologue
	movq	%rcx, 48(%rbp)
	movq	%rdx, 56(%rbp)
	movq	56(%rbp), %rax
	cmpq	48(%rbp), %rax
	je	.L445
	call	_ZN9__gnu_cxx14__alloc_traitsISaIiEE27_S_propagate_on_copy_assignEv
	testb	%al, %al
	je	.L446
	call	_ZN9__gnu_cxx14__alloc_traitsISaIiEE15_S_always_equalEv
	xorl	$1, %eax
	testb	%al, %al
	je	.L447
	movq	56(%rbp), %rax
	movq	%rax, %rcx
	call	_ZNKSt12_Vector_baseIiSaIiEE19_M_get_Tp_allocatorEv
	movq	%rax, %rbx
	movq	48(%rbp), %rax
	movq	%rax, %rcx
	call	_ZNSt12_Vector_baseIiSaIiEE19_M_get_Tp_allocatorEv
	movq	%rbx, %rdx
	movq	%rax, %rcx
	call	_ZStneIiEbRKSaIT_ES3_
	testb	%al, %al
	je	.L447
	movl	$1, %eax
	jmp	.L448
.L447:
	movl	$0, %eax
.L448:
	testb	%al, %al
	je	.L449
	movq	48(%rbp), %rcx
	call	_ZNSt6vectorIiSaIiEE5clearEv
	movq	48(%rbp), %rax
	movq	48(%rbp), %rdx
	movq	16(%rdx), %rdx
	movq	%rdx, %rcx
	movq	48(%rbp), %rdx
	movq	(%rdx), %rdx
	subq	%rdx, %rcx
	movq	%rcx, %rdx
	sarq	$2, %rdx
	movq	%rdx, %rcx
	movq	48(%rbp), %rdx
	movq	(%rdx), %rdx
	movq	%rcx, %r8
	movq	%rax, %rcx
	call	_ZNSt12_Vector_baseIiSaIiEE13_M_deallocateEPim
	movq	48(%rbp), %rax
	movq	$0, (%rax)
	movq	48(%rbp), %rax
	movq	$0, 8(%rax)
	movq	48(%rbp), %rax
	movq	$0, 16(%rax)
.L449:
	movq	56(%rbp), %rax
	movq	%rax, %rcx
	call	_ZNKSt12_Vector_baseIiSaIiEE19_M_get_Tp_allocatorEv
	movq	%rax, %rbx
	movq	48(%rbp), %rax
	movq	%rax, %rcx
	call	_ZNSt12_Vector_baseIiSaIiEE19_M_get_Tp_allocatorEv
	movq	%rbx, %rdx
	movq	%rax, %rcx
	call	_ZSt15__alloc_on_copyISaIiEEvRT_RKS1_
.L446:
	movq	56(%rbp), %rax
	movq	%rax, %rcx
	call	_ZNKSt6vectorIiSaIiEE4sizeEv
	movq	%rax, -8(%rbp)
	movq	48(%rbp), %rcx
	call	_ZNKSt6vectorIiSaIiEE8capacityEv
	cmpq	%rax, -8(%rbp)
	seta	%al
	testb	%al, %al
	je	.L450
	movq	56(%rbp), %rax
	movq	%rax, %rcx
	call	_ZNKSt6vectorIiSaIiEE3endEv
	movq	%rax, %rbx
	movq	56(%rbp), %rax
	movq	%rax, %rcx
	call	_ZNKSt6vectorIiSaIiEE5beginEv
	movq	%rax, %rdx
	movq	-8(%rbp), %rax
	movq	%rbx, %r9
	movq	%rdx, %r8
	movq	%rax, %rdx
	movq	48(%rbp), %rcx
	call	_ZNSt6vectorIiSaIiEE20_M_allocate_and_copyIN9__gnu_cxx17__normal_iteratorIPKiS1_EEEEPimT_S9_
	movq	%rax, -16(%rbp)
	movq	48(%rbp), %rax
	movq	%rax, %rcx
	call	_ZNSt12_Vector_baseIiSaIiEE19_M_get_Tp_allocatorEv
	movq	%rax, %rcx
	movq	48(%rbp), %rax
	movq	8(%rax), %rdx
	movq	48(%rbp), %rax
	movq	(%rax), %rax
	movq	%rcx, %r8
	movq	%rax, %rcx
	call	_ZSt8_DestroyIPiiEvT_S1_RSaIT0_E
	movq	48(%rbp), %rax
	movq	48(%rbp), %rdx
	movq	16(%rdx), %rdx
	movq	%rdx, %rcx
	movq	48(%rbp), %rdx
	movq	(%rdx), %rdx
	subq	%rdx, %rcx
	movq	%rcx, %rdx
	sarq	$2, %rdx
	movq	%rdx, %rcx
	movq	48(%rbp), %rdx
	movq	(%rdx), %rdx
	movq	%rcx, %r8
	movq	%rax, %rcx
	call	_ZNSt12_Vector_baseIiSaIiEE13_M_deallocateEPim
	movq	48(%rbp), %rax
	movq	-16(%rbp), %rdx
	movq	%rdx, (%rax)
	movq	48(%rbp), %rax
	movq	(%rax), %rax
	movq	-8(%rbp), %rdx
	salq	$2, %rdx
	addq	%rax, %rdx
	movq	48(%rbp), %rax
	movq	%rdx, 16(%rax)
	jmp	.L451
.L450:
	movq	48(%rbp), %rcx
	call	_ZNKSt6vectorIiSaIiEE4sizeEv
	cmpq	%rax, -8(%rbp)
	setbe	%al
	testb	%al, %al
	je	.L452
	movq	48(%rbp), %rax
	movq	%rax, %rcx
	call	_ZNSt12_Vector_baseIiSaIiEE19_M_get_Tp_allocatorEv
	movq	%rax, %rsi
	movq	48(%rbp), %rcx
	call	_ZNSt6vectorIiSaIiEE3endEv
	movq	%rax, %rbx
	movq	48(%rbp), %rcx
	call	_ZNSt6vectorIiSaIiEE5beginEv
	movq	%rax, %r12
	movq	56(%rbp), %rax
	movq	%rax, %rcx
	call	_ZNKSt6vectorIiSaIiEE3endEv
	movq	%rax, %rdi
	movq	56(%rbp), %rax
	movq	%rax, %rcx
	call	_ZNKSt6vectorIiSaIiEE5beginEv
	movq	%r12, %r8
	movq	%rdi, %rdx
	movq	%rax, %rcx
	call	_ZSt4copyIN9__gnu_cxx17__normal_iteratorIPKiSt6vectorIiSaIiEEEENS1_IPiS6_EEET0_T_SB_SA_
	movq	%rsi, %r8
	movq	%rbx, %rdx
	movq	%rax, %rcx
	call	_ZSt8_DestroyIN9__gnu_cxx17__normal_iteratorIPiSt6vectorIiSaIiEEEEiEvT_S7_RSaIT0_E
	jmp	.L451
.L452:
	movq	48(%rbp), %rax
	movq	(%rax), %rbx
	movq	56(%rbp), %rax
	movq	(%rax), %rsi
	movq	48(%rbp), %rcx
	call	_ZNKSt6vectorIiSaIiEE4sizeEv
	salq	$2, %rax
	leaq	(%rsi,%rax), %rdx
	movq	56(%rbp), %rax
	movq	(%rax), %rax
	movq	%rbx, %r8
	movq	%rax, %rcx
	call	_ZSt4copyIPiS0_ET0_T_S2_S1_
	movq	48(%rbp), %rax
	movq	%rax, %rcx
	call	_ZNSt12_Vector_baseIiSaIiEE19_M_get_Tp_allocatorEv
	movq	%rax, %r12
	movq	48(%rbp), %rax
	movq	8(%rax), %rsi
	movq	56(%rbp), %rax
	movq	8(%rax), %rbx
	movq	56(%rbp), %rax
	movq	(%rax), %rdi
	movq	48(%rbp), %rcx
	call	_ZNKSt6vectorIiSaIiEE4sizeEv
	salq	$2, %rax
	addq	%rdi, %rax
	movq	%r12, %r9
	movq	%rsi, %r8
	movq	%rbx, %rdx
	movq	%rax, %rcx
	call	_ZSt22__uninitialized_copy_aIPiS0_iET0_T_S2_S1_RSaIT1_E
.L451:
	movq	48(%rbp), %rax
	movq	(%rax), %rax
	movq	-8(%rbp), %rdx
	salq	$2, %rdx
	addq	%rax, %rdx
	movq	48(%rbp), %rax
	movq	%rdx, 8(%rax)
.L445:
	movq	48(%rbp), %rax
	addq	$48, %rsp
	popq	%rbx
	popq	%rsi
	popq	%rdi
	popq	%r12
	popq	%rbp
	ret
	.seh_endproc
	.section	.text$_ZNSt22__uninitialized_fill_nILb0EE15__uninit_fill_nIPSt6vectorIiSaIiEEmS4_EET_S6_T0_RKT1_,"x"
	.linkonce discard
	.globl	_ZNSt22__uninitialized_fill_nILb0EE15__uninit_fill_nIPSt6vectorIiSaIiEEmS4_EET_S6_T0_RKT1_
	.def	_ZNSt22__uninitialized_fill_nILb0EE15__uninit_fill_nIPSt6vectorIiSaIiEEmS4_EET_S6_T0_RKT1_;	.scl	2;	.type	32;	.endef
	.seh_proc	_ZNSt22__uninitialized_fill_nILb0EE15__uninit_fill_nIPSt6vectorIiSaIiEEmS4_EET_S6_T0_RKT1_
_ZNSt22__uninitialized_fill_nILb0EE15__uninit_fill_nIPSt6vectorIiSaIiEEmS4_EET_S6_T0_RKT1_:
.LFB2868:
	pushq	%rbp
	.seh_pushreg	%rbp
	pushq	%rbx
	.seh_pushreg	%rbx
	subq	$56, %rsp
	.seh_stackalloc	56
	leaq	128(%rsp), %rbp
	.seh_setframe	%rbp, 128
	.seh_endprologue
	movq	%rcx, -48(%rbp)
	movq	%rdx, -40(%rbp)
	movq	%r8, -32(%rbp)
	movq	-48(%rbp), %rax
	movq	%rax, -88(%rbp)
.L456:
	cmpq	$0, -40(%rbp)
	je	.L455
	movq	-88(%rbp), %rax
	movq	%rax, %rcx
	call	_ZSt11__addressofISt6vectorIiSaIiEEEPT_RS3_
	movq	%rax, %rcx
	movq	-32(%rbp), %rax
	movq	%rax, %rdx
.LEHB47:
	call	_ZSt10_ConstructISt6vectorIiSaIiEEJRKS2_EEvPT_DpOT0_
.LEHE47:
	subq	$1, -40(%rbp)
	addq	$24, -88(%rbp)
	jmp	.L456
.L455:
	movq	-88(%rbp), %rax
	jmp	.L462
.L460:
	movq	%rax, %rcx
	call	__cxa_begin_catch
	movq	-88(%rbp), %rax
	movq	%rax, %rdx
	movq	-48(%rbp), %rcx
.LEHB48:
	call	_ZSt8_DestroyIPSt6vectorIiSaIiEEEvT_S4_
	call	__cxa_rethrow
.LEHE48:
.L461:
	movq	%rax, %rbx
	call	__cxa_end_catch
	movq	%rbx, %rax
	movq	%rax, %rcx
.LEHB49:
	call	_Unwind_Resume
.LEHE49:
.L462:
	addq	$56, %rsp
	popq	%rbx
	popq	%rbp
	ret
	.seh_handler	__gxx_personality_seh0, @unwind, @except
	.seh_handlerdata
	.align 4
.LLSDA2868:
	.byte	0xff
	.byte	0x9b
	.uleb128 .LLSDATT2868-.LLSDATTD2868
.LLSDATTD2868:
	.byte	0x1
	.uleb128 .LLSDACSE2868-.LLSDACSB2868
.LLSDACSB2868:
	.uleb128 .LEHB47-.LFB2868
	.uleb128 .LEHE47-.LEHB47
	.uleb128 .L460-.LFB2868
	.uleb128 0x1
	.uleb128 .LEHB48-.LFB2868
	.uleb128 .LEHE48-.LEHB48
	.uleb128 .L461-.LFB2868
	.uleb128 0
	.uleb128 .LEHB49-.LFB2868
	.uleb128 .LEHE49-.LEHB49
	.uleb128 0
	.uleb128 0
.LLSDACSE2868:
	.byte	0x1
	.byte	0
	.align 4
	.long	0

.LLSDATT2868:
	.section	.text$_ZNSt22__uninitialized_fill_nILb0EE15__uninit_fill_nIPSt6vectorIiSaIiEEmS4_EET_S6_T0_RKT1_,"x"
	.linkonce discard
	.seh_endproc
	.section	.text$_ZNSt16allocator_traitsISaISt6vectorIiSaIiEEEE8max_sizeERKS3_,"x"
	.linkonce discard
	.globl	_ZNSt16allocator_traitsISaISt6vectorIiSaIiEEEE8max_sizeERKS3_
	.def	_ZNSt16allocator_traitsISaISt6vectorIiSaIiEEEE8max_sizeERKS3_;	.scl	2;	.type	32;	.endef
	.seh_proc	_ZNSt16allocator_traitsISaISt6vectorIiSaIiEEEE8max_sizeERKS3_
_ZNSt16allocator_traitsISaISt6vectorIiSaIiEEEE8max_sizeERKS3_:
.LFB2869:
	pushq	%rbp
	.seh_pushreg	%rbp
	movq	%rsp, %rbp
	.seh_setframe	%rbp, 0
	subq	$32, %rsp
	.seh_stackalloc	32
	.seh_endprologue
	movq	%rcx, 16(%rbp)
	movq	16(%rbp), %rcx
	call	_ZNK9__gnu_cxx13new_allocatorISt6vectorIiSaIiEEE8max_sizeEv
	addq	$32, %rsp
	popq	%rbp
	ret
	.seh_endproc
	.section	.text$_ZN9__gnu_cxx13new_allocatorISt6vectorIiSaIiEEE8allocateEmPKv,"x"
	.linkonce discard
	.align 2
	.globl	_ZN9__gnu_cxx13new_allocatorISt6vectorIiSaIiEEE8allocateEmPKv
	.def	_ZN9__gnu_cxx13new_allocatorISt6vectorIiSaIiEEE8allocateEmPKv;	.scl	2;	.type	32;	.endef
	.seh_proc	_ZN9__gnu_cxx13new_allocatorISt6vectorIiSaIiEEE8allocateEmPKv
_ZN9__gnu_cxx13new_allocatorISt6vectorIiSaIiEEE8allocateEmPKv:
.LFB2870:
	pushq	%rbp
	.seh_pushreg	%rbp
	movq	%rsp, %rbp
	.seh_setframe	%rbp, 0
	subq	$32, %rsp
	.seh_stackalloc	32
	.seh_endprologue
	movq	%rcx, 16(%rbp)
	movq	%rdx, 24(%rbp)
	movq	%r8, 32(%rbp)
	movq	16(%rbp), %rcx
	call	_ZNK9__gnu_cxx13new_allocatorISt6vectorIiSaIiEEE8max_sizeEv
	cmpq	%rax, 24(%rbp)
	seta	%al
	testb	%al, %al
	je	.L466
	call	_ZSt17__throw_bad_allocv
.L466:
	movq	24(%rbp), %rdx
	movq	%rdx, %rax
	addq	%rax, %rax
	addq	%rdx, %rax
	salq	$3, %rax
	movq	%rax, %rcx
	call	_Znwm
	addq	$32, %rsp
	popq	%rbp
	ret
	.seh_endproc
	.section	.text$_ZNSt14pointer_traitsIPiE10pointer_toERi,"x"
	.linkonce discard
	.globl	_ZNSt14pointer_traitsIPiE10pointer_toERi
	.def	_ZNSt14pointer_traitsIPiE10pointer_toERi;	.scl	2;	.type	32;	.endef
	.seh_proc	_ZNSt14pointer_traitsIPiE10pointer_toERi
_ZNSt14pointer_traitsIPiE10pointer_toERi:
.LFB2871:
	pushq	%rbp
	.seh_pushreg	%rbp
	movq	%rsp, %rbp
	.seh_setframe	%rbp, 0
	subq	$32, %rsp
	.seh_stackalloc	32
	.seh_endprologue
	movq	%rcx, 16(%rbp)
	movq	16(%rbp), %rcx
	call	_ZSt9addressofIiEPT_RS0_
	addq	$32, %rsp
	popq	%rbp
	ret
	.seh_endproc
	.section	.text$_ZN9__gnu_cxx13new_allocatorIiE9constructIiJRKiEEEvPT_DpOT0_,"x"
	.linkonce discard
	.align 2
	.globl	_ZN9__gnu_cxx13new_allocatorIiE9constructIiJRKiEEEvPT_DpOT0_
	.def	_ZN9__gnu_cxx13new_allocatorIiE9constructIiJRKiEEEvPT_DpOT0_;	.scl	2;	.type	32;	.endef
	.seh_proc	_ZN9__gnu_cxx13new_allocatorIiE9constructIiJRKiEEEvPT_DpOT0_
_ZN9__gnu_cxx13new_allocatorIiE9constructIiJRKiEEEvPT_DpOT0_:
.LFB2872:
	pushq	%rbp
	.seh_pushreg	%rbp
	pushq	%rbx
	.seh_pushreg	%rbx
	subq	$40, %rsp
	.seh_stackalloc	40
	leaq	128(%rsp), %rbp
	.seh_setframe	%rbp, 128
	.seh_endprologue
	movq	%rcx, -64(%rbp)
	movq	%rdx, -56(%rbp)
	movq	%r8, -48(%rbp)
	movq	-48(%rbp), %rax
	movq	%rax, %rcx
	call	_ZSt7forwardIRKiEOT_RNSt16remove_referenceIS2_E4typeE
	movl	(%rax), %ebx
	movq	-56(%rbp), %rax
	movq	%rax, %rdx
	movl	$4, %ecx
	call	_ZnwmPv
	testq	%rax, %rax
	je	.L473
	movl	%ebx, (%rax)
.L473:
	nop
	addq	$40, %rsp
	popq	%rbx
	popq	%rbp
	ret
	.seh_endproc
	.section	.text$_ZN9__gnu_cxx13new_allocatorIiE7destroyIiEEvPT_,"x"
	.linkonce discard
	.align 2
	.globl	_ZN9__gnu_cxx13new_allocatorIiE7destroyIiEEvPT_
	.def	_ZN9__gnu_cxx13new_allocatorIiE7destroyIiEEvPT_;	.scl	2;	.type	32;	.endef
	.seh_proc	_ZN9__gnu_cxx13new_allocatorIiE7destroyIiEEvPT_
_ZN9__gnu_cxx13new_allocatorIiE7destroyIiEEvPT_:
.LFB2873:
	pushq	%rbp
	.seh_pushreg	%rbp
	movq	%rsp, %rbp
	.seh_setframe	%rbp, 0
	.seh_endprologue
	movq	%rcx, 16(%rbp)
	movq	%rdx, 24(%rbp)
	nop
	popq	%rbp
	ret
	.seh_endproc
	.section	.text$_ZNSt13move_iteratorIPiEC1ES0_,"x"
	.linkonce discard
	.align 2
	.globl	_ZNSt13move_iteratorIPiEC1ES0_
	.def	_ZNSt13move_iteratorIPiEC1ES0_;	.scl	2;	.type	32;	.endef
	.seh_proc	_ZNSt13move_iteratorIPiEC1ES0_
_ZNSt13move_iteratorIPiEC1ES0_:
.LFB2876:
	pushq	%rbp
	.seh_pushreg	%rbp
	movq	%rsp, %rbp
	.seh_setframe	%rbp, 0
	.seh_endprologue
	movq	%rcx, 16(%rbp)
	movq	%rdx, 24(%rbp)
	movq	16(%rbp), %rax
	movq	24(%rbp), %rdx
	movq	%rdx, (%rax)
	nop
	popq	%rbp
	ret
	.seh_endproc
	.section	.text$_ZSt18uninitialized_copyISt13move_iteratorIPiES1_ET0_T_S4_S3_,"x"
	.linkonce discard
	.globl	_ZSt18uninitialized_copyISt13move_iteratorIPiES1_ET0_T_S4_S3_
	.def	_ZSt18uninitialized_copyISt13move_iteratorIPiES1_ET0_T_S4_S3_;	.scl	2;	.type	32;	.endef
	.seh_proc	_ZSt18uninitialized_copyISt13move_iteratorIPiES1_ET0_T_S4_S3_
_ZSt18uninitialized_copyISt13move_iteratorIPiES1_ET0_T_S4_S3_:
.LFB2877:
	pushq	%rbp
	.seh_pushreg	%rbp
	movq	%rsp, %rbp
	.seh_setframe	%rbp, 0
	subq	$48, %rsp
	.seh_stackalloc	48
	.seh_endprologue
	movq	%rcx, 16(%rbp)
	movq	%rdx, 24(%rbp)
	movq	%r8, 32(%rbp)
	movb	$1, -1(%rbp)
	movq	32(%rbp), %rdx
	movq	24(%rbp), %rax
	movq	%rdx, %r8
	movq	%rax, %rdx
	movq	16(%rbp), %rcx
	call	_ZNSt20__uninitialized_copyILb1EE13__uninit_copyISt13move_iteratorIPiES3_EET0_T_S6_S5_
	addq	$48, %rsp
	popq	%rbp
	ret
	.seh_endproc
	.section	.text$_ZSt22__copy_move_backward_aILb1EPiS0_ET1_T0_S2_S1_,"x"
	.linkonce discard
	.globl	_ZSt22__copy_move_backward_aILb1EPiS0_ET1_T0_S2_S1_
	.def	_ZSt22__copy_move_backward_aILb1EPiS0_ET1_T0_S2_S1_;	.scl	2;	.type	32;	.endef
	.seh_proc	_ZSt22__copy_move_backward_aILb1EPiS0_ET1_T0_S2_S1_
_ZSt22__copy_move_backward_aILb1EPiS0_ET1_T0_S2_S1_:
.LFB2878:
	pushq	%rbp
	.seh_pushreg	%rbp
	movq	%rsp, %rbp
	.seh_setframe	%rbp, 0
	subq	$48, %rsp
	.seh_stackalloc	48
	.seh_endprologue
	movq	%rcx, 16(%rbp)
	movq	%rdx, 24(%rbp)
	movq	%r8, 32(%rbp)
	movb	$1, -1(%rbp)
	movq	32(%rbp), %rdx
	movq	24(%rbp), %rax
	movq	%rdx, %r8
	movq	%rax, %rdx
	movq	16(%rbp), %rcx
	call	_ZNSt20__copy_move_backwardILb1ELb1ESt26random_access_iterator_tagE13__copy_move_bIiEEPT_PKS3_S6_S4_
	addq	$48, %rsp
	popq	%rbp
	ret
	.seh_endproc
	.section	.text$_ZNSt16allocator_traitsISaIiEE8max_sizeERKS0_,"x"
	.linkonce discard
	.globl	_ZNSt16allocator_traitsISaIiEE8max_sizeERKS0_
	.def	_ZNSt16allocator_traitsISaIiEE8max_sizeERKS0_;	.scl	2;	.type	32;	.endef
	.seh_proc	_ZNSt16allocator_traitsISaIiEE8max_sizeERKS0_
_ZNSt16allocator_traitsISaIiEE8max_sizeERKS0_:
.LFB2879:
	pushq	%rbp
	.seh_pushreg	%rbp
	movq	%rsp, %rbp
	.seh_setframe	%rbp, 0
	subq	$32, %rsp
	.seh_stackalloc	32
	.seh_endprologue
	movq	%rcx, 16(%rbp)
	movq	16(%rbp), %rcx
	call	_ZNK9__gnu_cxx13new_allocatorIiE8max_sizeEv
	addq	$32, %rsp
	popq	%rbp
	ret
	.seh_endproc
	.section	.text$_ZN9__gnu_cxx13new_allocatorIiE8allocateEmPKv,"x"
	.linkonce discard
	.align 2
	.globl	_ZN9__gnu_cxx13new_allocatorIiE8allocateEmPKv
	.def	_ZN9__gnu_cxx13new_allocatorIiE8allocateEmPKv;	.scl	2;	.type	32;	.endef
	.seh_proc	_ZN9__gnu_cxx13new_allocatorIiE8allocateEmPKv
_ZN9__gnu_cxx13new_allocatorIiE8allocateEmPKv:
.LFB2880:
	pushq	%rbp
	.seh_pushreg	%rbp
	movq	%rsp, %rbp
	.seh_setframe	%rbp, 0
	subq	$32, %rsp
	.seh_stackalloc	32
	.seh_endprologue
	movq	%rcx, 16(%rbp)
	movq	%rdx, 24(%rbp)
	movq	%r8, 32(%rbp)
	movq	16(%rbp), %rcx
	call	_ZNK9__gnu_cxx13new_allocatorIiE8max_sizeEv
	cmpq	%rax, 24(%rbp)
	seta	%al
	testb	%al, %al
	je	.L483
	call	_ZSt17__throw_bad_allocv
.L483:
	movq	24(%rbp), %rax
	salq	$2, %rax
	movq	%rax, %rcx
	call	_Znwm
	addq	$32, %rsp
	popq	%rbp
	ret
	.seh_endproc
	.section	.text$_ZN9__gnu_cxx13new_allocatorISt10_List_nodeIiEEC2Ev,"x"
	.linkonce discard
	.align 2
	.globl	_ZN9__gnu_cxx13new_allocatorISt10_List_nodeIiEEC2Ev
	.def	_ZN9__gnu_cxx13new_allocatorISt10_List_nodeIiEEC2Ev;	.scl	2;	.type	32;	.endef
	.seh_proc	_ZN9__gnu_cxx13new_allocatorISt10_List_nodeIiEEC2Ev
_ZN9__gnu_cxx13new_allocatorISt10_List_nodeIiEEC2Ev:
.LFB2882:
	pushq	%rbp
	.seh_pushreg	%rbp
	movq	%rsp, %rbp
	.seh_setframe	%rbp, 0
	.seh_endprologue
	movq	%rcx, 16(%rbp)
	nop
	popq	%rbp
	ret
	.seh_endproc
	.section	.text$_ZN9__gnu_cxx16__aligned_membufIiE7_M_addrEv,"x"
	.linkonce discard
	.align 2
	.globl	_ZN9__gnu_cxx16__aligned_membufIiE7_M_addrEv
	.def	_ZN9__gnu_cxx16__aligned_membufIiE7_M_addrEv;	.scl	2;	.type	32;	.endef
	.seh_proc	_ZN9__gnu_cxx16__aligned_membufIiE7_M_addrEv
_ZN9__gnu_cxx16__aligned_membufIiE7_M_addrEv:
.LFB2884:
	pushq	%rbp
	.seh_pushreg	%rbp
	movq	%rsp, %rbp
	.seh_setframe	%rbp, 0
	.seh_endprologue
	movq	%rcx, 16(%rbp)
	movq	16(%rbp), %rax
	popq	%rbp
	ret
	.seh_endproc
	.section	.text$_ZN9__gnu_cxx13new_allocatorISt10_List_nodeIiEE10deallocateEPS2_m,"x"
	.linkonce discard
	.align 2
	.globl	_ZN9__gnu_cxx13new_allocatorISt10_List_nodeIiEE10deallocateEPS2_m
	.def	_ZN9__gnu_cxx13new_allocatorISt10_List_nodeIiEE10deallocateEPS2_m;	.scl	2;	.type	32;	.endef
	.seh_proc	_ZN9__gnu_cxx13new_allocatorISt10_List_nodeIiEE10deallocateEPS2_m
_ZN9__gnu_cxx13new_allocatorISt10_List_nodeIiEE10deallocateEPS2_m:
.LFB2885:
	pushq	%rbp
	.seh_pushreg	%rbp
	movq	%rsp, %rbp
	.seh_setframe	%rbp, 0
	subq	$32, %rsp
	.seh_stackalloc	32
	.seh_endprologue
	movq	%rcx, 16(%rbp)
	movq	%rdx, 24(%rbp)
	movq	%r8, 32(%rbp)
	movq	24(%rbp), %rax
	movq	%rax, %rcx
	call	_ZdlPv
	nop
	addq	$32, %rsp
	popq	%rbp
	ret
	.seh_endproc
	.section	.text$_ZSt4copyIN9__gnu_cxx17__normal_iteratorIPKiSt6vectorIiSaIiEEEEPiET0_T_SA_S9_,"x"
	.linkonce discard
	.globl	_ZSt4copyIN9__gnu_cxx17__normal_iteratorIPKiSt6vectorIiSaIiEEEEPiET0_T_SA_S9_
	.def	_ZSt4copyIN9__gnu_cxx17__normal_iteratorIPKiSt6vectorIiSaIiEEEEPiET0_T_SA_S9_;	.scl	2;	.type	32;	.endef
	.seh_proc	_ZSt4copyIN9__gnu_cxx17__normal_iteratorIPKiSt6vectorIiSaIiEEEEPiET0_T_SA_S9_
_ZSt4copyIN9__gnu_cxx17__normal_iteratorIPKiSt6vectorIiSaIiEEEEPiET0_T_SA_S9_:
.LFB2886:
	pushq	%rbp
	.seh_pushreg	%rbp
	pushq	%rbx
	.seh_pushreg	%rbx
	subq	$40, %rsp
	.seh_stackalloc	40
	leaq	128(%rsp), %rbp
	.seh_setframe	%rbp, 128
	.seh_endprologue
	movq	%rcx, -64(%rbp)
	movq	%rdx, -56(%rbp)
	movq	%r8, -48(%rbp)
	movq	-56(%rbp), %rax
	movq	%rax, %rcx
	call	_ZSt12__miter_baseIN9__gnu_cxx17__normal_iteratorIPKiSt6vectorIiSaIiEEEEET_S8_
	movq	%rax, %rbx
	movq	-64(%rbp), %rcx
	call	_ZSt12__miter_baseIN9__gnu_cxx17__normal_iteratorIPKiSt6vectorIiSaIiEEEEET_S8_
	movq	%rax, %rcx
	movq	-48(%rbp), %rax
	movq	%rax, %r8
	movq	%rbx, %rdx
	call	_ZSt14__copy_move_a2ILb0EN9__gnu_cxx17__normal_iteratorIPKiSt6vectorIiSaIiEEEEPiET1_T0_SA_S9_
	addq	$40, %rsp
	popq	%rbx
	popq	%rbp
	ret
	.seh_endproc
	.section	.text$_ZNSt16allocator_traitsISaISt10_List_nodeIiEEE8allocateERS2_m,"x"
	.linkonce discard
	.globl	_ZNSt16allocator_traitsISaISt10_List_nodeIiEEE8allocateERS2_m
	.def	_ZNSt16allocator_traitsISaISt10_List_nodeIiEEE8allocateERS2_m;	.scl	2;	.type	32;	.endef
	.seh_proc	_ZNSt16allocator_traitsISaISt10_List_nodeIiEEE8allocateERS2_m
_ZNSt16allocator_traitsISaISt10_List_nodeIiEEE8allocateERS2_m:
.LFB2887:
	pushq	%rbp
	.seh_pushreg	%rbp
	movq	%rsp, %rbp
	.seh_setframe	%rbp, 0
	subq	$32, %rsp
	.seh_stackalloc	32
	.seh_endprologue
	movq	%rcx, 16(%rbp)
	movq	%rdx, 24(%rbp)
	movq	24(%rbp), %rax
	movl	$0, %r8d
	movq	%rax, %rdx
	movq	16(%rbp), %rcx
	call	_ZN9__gnu_cxx13new_allocatorISt10_List_nodeIiEE8allocateEmPKv
	addq	$32, %rsp
	popq	%rbp
	ret
	.seh_endproc
	.section	.text$_ZSt11__addressofISaISt10_List_nodeIiEEEPT_RS3_,"x"
	.linkonce discard
	.globl	_ZSt11__addressofISaISt10_List_nodeIiEEEPT_RS3_
	.def	_ZSt11__addressofISaISt10_List_nodeIiEEEPT_RS3_;	.scl	2;	.type	32;	.endef
	.seh_proc	_ZSt11__addressofISaISt10_List_nodeIiEEEPT_RS3_
_ZSt11__addressofISaISt10_List_nodeIiEEEPT_RS3_:
.LFB2888:
	pushq	%rbp
	.seh_pushreg	%rbp
	movq	%rsp, %rbp
	.seh_setframe	%rbp, 0
	.seh_endprologue
	movq	%rcx, 16(%rbp)
	movq	16(%rbp), %rax
	popq	%rbp
	ret
	.seh_endproc
	.section	.text$_ZN9__gnu_cxx13new_allocatorISt10_List_nodeIiEE9constructIiJiEEEvPT_DpOT0_,"x"
	.linkonce discard
	.align 2
	.globl	_ZN9__gnu_cxx13new_allocatorISt10_List_nodeIiEE9constructIiJiEEEvPT_DpOT0_
	.def	_ZN9__gnu_cxx13new_allocatorISt10_List_nodeIiEE9constructIiJiEEEvPT_DpOT0_;	.scl	2;	.type	32;	.endef
	.seh_proc	_ZN9__gnu_cxx13new_allocatorISt10_List_nodeIiEE9constructIiJiEEEvPT_DpOT0_
_ZN9__gnu_cxx13new_allocatorISt10_List_nodeIiEE9constructIiJiEEEvPT_DpOT0_:
.LFB2889:
	pushq	%rbp
	.seh_pushreg	%rbp
	pushq	%rbx
	.seh_pushreg	%rbx
	subq	$40, %rsp
	.seh_stackalloc	40
	leaq	128(%rsp), %rbp
	.seh_setframe	%rbp, 128
	.seh_endprologue
	movq	%rcx, -64(%rbp)
	movq	%rdx, -56(%rbp)
	movq	%r8, -48(%rbp)
	movq	-48(%rbp), %rax
	movq	%rax, %rcx
	call	_ZSt7forwardIiEOT_RNSt16remove_referenceIS0_E4typeE
	movl	(%rax), %ebx
	movq	-56(%rbp), %rax
	movq	%rax, %rdx
	movl	$4, %ecx
	call	_ZnwmPv
	testq	%rax, %rax
	je	.L498
	movl	%ebx, (%rax)
.L498:
	nop
	addq	$40, %rsp
	popq	%rbx
	popq	%rbp
	ret
	.seh_endproc
	.section	.text$_ZN9__gnu_cxxneIPKSt6vectorIiSaIiEES1_IS3_SaIS3_EEEEbRKNS_17__normal_iteratorIT_T0_EESD_,"x"
	.linkonce discard
	.globl	_ZN9__gnu_cxxneIPKSt6vectorIiSaIiEES1_IS3_SaIS3_EEEEbRKNS_17__normal_iteratorIT_T0_EESD_
	.def	_ZN9__gnu_cxxneIPKSt6vectorIiSaIiEES1_IS3_SaIS3_EEEEbRKNS_17__normal_iteratorIT_T0_EESD_;	.scl	2;	.type	32;	.endef
	.seh_proc	_ZN9__gnu_cxxneIPKSt6vectorIiSaIiEES1_IS3_SaIS3_EEEEbRKNS_17__normal_iteratorIT_T0_EESD_
_ZN9__gnu_cxxneIPKSt6vectorIiSaIiEES1_IS3_SaIS3_EEEEbRKNS_17__normal_iteratorIT_T0_EESD_:
.LFB2890:
	pushq	%rbp
	.seh_pushreg	%rbp
	pushq	%rbx
	.seh_pushreg	%rbx
	subq	$40, %rsp
	.seh_stackalloc	40
	leaq	128(%rsp), %rbp
	.seh_setframe	%rbp, 128
	.seh_endprologue
	movq	%rcx, -64(%rbp)
	movq	%rdx, -56(%rbp)
	movq	-64(%rbp), %rcx
	call	_ZNK9__gnu_cxx17__normal_iteratorIPKSt6vectorIiSaIiEES1_IS3_SaIS3_EEE4baseEv
	movq	(%rax), %rbx
	movq	-56(%rbp), %rax
	movq	%rax, %rcx
	call	_ZNK9__gnu_cxx17__normal_iteratorIPKSt6vectorIiSaIiEES1_IS3_SaIS3_EEE4baseEv
	movq	(%rax), %rax
	cmpq	%rax, %rbx
	setne	%al
	addq	$40, %rsp
	popq	%rbx
	popq	%rbp
	ret
	.seh_endproc
	.section	.text$_ZN9__gnu_cxx17__normal_iteratorIPKSt6vectorIiSaIiEES1_IS3_SaIS3_EEEppEv,"x"
	.linkonce discard
	.align 2
	.globl	_ZN9__gnu_cxx17__normal_iteratorIPKSt6vectorIiSaIiEES1_IS3_SaIS3_EEEppEv
	.def	_ZN9__gnu_cxx17__normal_iteratorIPKSt6vectorIiSaIiEES1_IS3_SaIS3_EEEppEv;	.scl	2;	.type	32;	.endef
	.seh_proc	_ZN9__gnu_cxx17__normal_iteratorIPKSt6vectorIiSaIiEES1_IS3_SaIS3_EEEppEv
_ZN9__gnu_cxx17__normal_iteratorIPKSt6vectorIiSaIiEES1_IS3_SaIS3_EEEppEv:
.LFB2891:
	pushq	%rbp
	.seh_pushreg	%rbp
	movq	%rsp, %rbp
	.seh_setframe	%rbp, 0
	.seh_endprologue
	movq	%rcx, 16(%rbp)
	movq	16(%rbp), %rax
	movq	(%rax), %rax
	leaq	24(%rax), %rdx
	movq	16(%rbp), %rax
	movq	%rdx, (%rax)
	movq	16(%rbp), %rax
	popq	%rbp
	ret
	.seh_endproc
	.section	.text$_ZNK9__gnu_cxx17__normal_iteratorIPKSt6vectorIiSaIiEES1_IS3_SaIS3_EEEdeEv,"x"
	.linkonce discard
	.align 2
	.globl	_ZNK9__gnu_cxx17__normal_iteratorIPKSt6vectorIiSaIiEES1_IS3_SaIS3_EEEdeEv
	.def	_ZNK9__gnu_cxx17__normal_iteratorIPKSt6vectorIiSaIiEES1_IS3_SaIS3_EEEdeEv;	.scl	2;	.type	32;	.endef
	.seh_proc	_ZNK9__gnu_cxx17__normal_iteratorIPKSt6vectorIiSaIiEES1_IS3_SaIS3_EEEdeEv
_ZNK9__gnu_cxx17__normal_iteratorIPKSt6vectorIiSaIiEES1_IS3_SaIS3_EEEdeEv:
.LFB2892:
	pushq	%rbp
	.seh_pushreg	%rbp
	movq	%rsp, %rbp
	.seh_setframe	%rbp, 0
	.seh_endprologue
	movq	%rcx, 16(%rbp)
	movq	16(%rbp), %rax
	movq	(%rax), %rax
	popq	%rbp
	ret
	.seh_endproc
	.section	.text$_ZSt10_ConstructISt6vectorIiSaIiEEJRKS2_EEvPT_DpOT0_,"x"
	.linkonce discard
	.globl	_ZSt10_ConstructISt6vectorIiSaIiEEJRKS2_EEvPT_DpOT0_
	.def	_ZSt10_ConstructISt6vectorIiSaIiEEJRKS2_EEvPT_DpOT0_;	.scl	2;	.type	32;	.endef
	.seh_proc	_ZSt10_ConstructISt6vectorIiSaIiEEJRKS2_EEvPT_DpOT0_
_ZSt10_ConstructISt6vectorIiSaIiEEJRKS2_EEvPT_DpOT0_:
.LFB2893:
	pushq	%rbp
	.seh_pushreg	%rbp
	pushq	%rdi
	.seh_pushreg	%rdi
	pushq	%rsi
	.seh_pushreg	%rsi
	pushq	%rbx
	.seh_pushreg	%rbx
	subq	$40, %rsp
	.seh_stackalloc	40
	leaq	128(%rsp), %rbp
	.seh_setframe	%rbp, 128
	.seh_endprologue
	movq	%rcx, -48(%rbp)
	movq	%rdx, -40(%rbp)
	movq	-40(%rbp), %rax
	movq	%rax, %rcx
	call	_ZSt7forwardIRKSt6vectorIiSaIiEEEOT_RNSt16remove_referenceIS5_E4typeE
	movq	%rax, %rdi
	movq	-48(%rbp), %rsi
	movq	%rsi, %rdx
	movl	$24, %ecx
	call	_ZnwmPv
	movq	%rax, %rbx
	testq	%rbx, %rbx
	je	.L510
	movq	%rdi, %rdx
	movq	%rbx, %rcx
.LEHB50:
	call	_ZNSt6vectorIiSaIiEEC1ERKS1_
.LEHE50:
	jmp	.L510
.L509:
	movq	%rax, %rdi
	movq	%rsi, %rdx
	movq	%rbx, %rcx
	call	_ZdlPvS_
	movq	%rdi, %rax
	movq	%rax, %rcx
.LEHB51:
	call	_Unwind_Resume
.LEHE51:
.L510:
	nop
	addq	$40, %rsp
	popq	%rbx
	popq	%rsi
	popq	%rdi
	popq	%rbp
	ret
	.seh_handler	__gxx_personality_seh0, @unwind, @except
	.seh_handlerdata
.LLSDA2893:
	.byte	0xff
	.byte	0xff
	.byte	0x1
	.uleb128 .LLSDACSE2893-.LLSDACSB2893
.LLSDACSB2893:
	.uleb128 .LEHB50-.LFB2893
	.uleb128 .LEHE50-.LEHB50
	.uleb128 .L509-.LFB2893
	.uleb128 0
	.uleb128 .LEHB51-.LFB2893
	.uleb128 .LEHE51-.LEHB51
	.uleb128 0
	.uleb128 0
.LLSDACSE2893:
	.section	.text$_ZSt10_ConstructISt6vectorIiSaIiEEJRKS2_EEvPT_DpOT0_,"x"
	.linkonce discard
	.seh_endproc
	.section	.text$_ZSt6fill_nIPimiET_S1_T0_RKT1_,"x"
	.linkonce discard
	.globl	_ZSt6fill_nIPimiET_S1_T0_RKT1_
	.def	_ZSt6fill_nIPimiET_S1_T0_RKT1_;	.scl	2;	.type	32;	.endef
	.seh_proc	_ZSt6fill_nIPimiET_S1_T0_RKT1_
_ZSt6fill_nIPimiET_S1_T0_RKT1_:
.LFB2913:
	pushq	%rbp
	.seh_pushreg	%rbp
	movq	%rsp, %rbp
	.seh_setframe	%rbp, 0
	subq	$32, %rsp
	.seh_stackalloc	32
	.seh_endprologue
	movq	%rcx, 16(%rbp)
	movq	%rdx, 24(%rbp)
	movq	%r8, 32(%rbp)
	movq	16(%rbp), %rcx
	call	_ZSt12__niter_baseIPiET_S1_
	movq	%rax, %rcx
	movq	32(%rbp), %rdx
	movq	24(%rbp), %rax
	movq	%rdx, %r8
	movq	%rax, %rdx
	call	_ZSt10__fill_n_aIPimiEN9__gnu_cxx11__enable_ifIXsrSt11__is_scalarIT1_E7__valueET_E6__typeES6_T0_RKS4_
	addq	$32, %rsp
	popq	%rbp
	ret
	.seh_endproc
	.section	.text$_ZSt9addressofISt6vectorIiSaIiEEEPT_RS3_,"x"
	.linkonce discard
	.globl	_ZSt9addressofISt6vectorIiSaIiEEEPT_RS3_
	.def	_ZSt9addressofISt6vectorIiSaIiEEEPT_RS3_;	.scl	2;	.type	32;	.endef
	.seh_proc	_ZSt9addressofISt6vectorIiSaIiEEEPT_RS3_
_ZSt9addressofISt6vectorIiSaIiEEEPT_RS3_:
.LFB2914:
	pushq	%rbp
	.seh_pushreg	%rbp
	movq	%rsp, %rbp
	.seh_setframe	%rbp, 0
	subq	$32, %rsp
	.seh_stackalloc	32
	.seh_endprologue
	movq	%rcx, 16(%rbp)
	movq	16(%rbp), %rcx
	call	_ZSt11__addressofISt6vectorIiSaIiEEEPT_RS3_
	addq	$32, %rsp
	popq	%rbp
	ret
	.seh_endproc
	.section	.text$_ZNSt20__uninitialized_copyILb0EE13__uninit_copyISt13move_iteratorIPSt6vectorIiSaIiEEES6_EET0_T_S9_S8_,"x"
	.linkonce discard
	.globl	_ZNSt20__uninitialized_copyILb0EE13__uninit_copyISt13move_iteratorIPSt6vectorIiSaIiEEES6_EET0_T_S9_S8_
	.def	_ZNSt20__uninitialized_copyILb0EE13__uninit_copyISt13move_iteratorIPSt6vectorIiSaIiEEES6_EET0_T_S9_S8_;	.scl	2;	.type	32;	.endef
	.seh_proc	_ZNSt20__uninitialized_copyILb0EE13__uninit_copyISt13move_iteratorIPSt6vectorIiSaIiEEES6_EET0_T_S9_S8_
_ZNSt20__uninitialized_copyILb0EE13__uninit_copyISt13move_iteratorIPSt6vectorIiSaIiEEES6_EET0_T_S9_S8_:
.LFB2915:
	pushq	%rbp
	.seh_pushreg	%rbp
	pushq	%rbx
	.seh_pushreg	%rbx
	subq	$56, %rsp
	.seh_stackalloc	56
	leaq	128(%rsp), %rbp
	.seh_setframe	%rbp, 128
	.seh_endprologue
	movq	%rcx, -48(%rbp)
	movq	%rdx, -40(%rbp)
	movq	%r8, -32(%rbp)
	movq	-32(%rbp), %rax
	movq	%rax, -88(%rbp)
.L517:
	leaq	-40(%rbp), %rax
	movq	%rax, %rdx
	leaq	-48(%rbp), %rcx
.LEHB52:
	call	_ZStneIPSt6vectorIiSaIiEEEbRKSt13move_iteratorIT_ES8_
.LEHE52:
	testb	%al, %al
	je	.L516
	leaq	-48(%rbp), %rcx
	call	_ZNKSt13move_iteratorIPSt6vectorIiSaIiEEEdeEv
	movq	%rax, %rbx
	movq	-88(%rbp), %rax
	movq	%rax, %rcx
	call	_ZSt11__addressofISt6vectorIiSaIiEEEPT_RS3_
	movq	%rbx, %rdx
	movq	%rax, %rcx
	call	_ZSt10_ConstructISt6vectorIiSaIiEEJS2_EEvPT_DpOT0_
	leaq	-48(%rbp), %rcx
	call	_ZNSt13move_iteratorIPSt6vectorIiSaIiEEEppEv
	addq	$24, -88(%rbp)
	jmp	.L517
.L516:
	movq	-88(%rbp), %rax
	jmp	.L523
.L521:
	movq	%rax, %rcx
	call	__cxa_begin_catch
	movq	-88(%rbp), %rdx
	movq	-32(%rbp), %rax
	movq	%rax, %rcx
.LEHB53:
	call	_ZSt8_DestroyIPSt6vectorIiSaIiEEEvT_S4_
	call	__cxa_rethrow
.LEHE53:
.L522:
	movq	%rax, %rbx
	call	__cxa_end_catch
	movq	%rbx, %rax
	movq	%rax, %rcx
.LEHB54:
	call	_Unwind_Resume
.LEHE54:
.L523:
	addq	$56, %rsp
	popq	%rbx
	popq	%rbp
	ret
	.seh_handler	__gxx_personality_seh0, @unwind, @except
	.seh_handlerdata
	.align 4
.LLSDA2915:
	.byte	0xff
	.byte	0x9b
	.uleb128 .LLSDATT2915-.LLSDATTD2915
.LLSDATTD2915:
	.byte	0x1
	.uleb128 .LLSDACSE2915-.LLSDACSB2915
.LLSDACSB2915:
	.uleb128 .LEHB52-.LFB2915
	.uleb128 .LEHE52-.LEHB52
	.uleb128 .L521-.LFB2915
	.uleb128 0x1
	.uleb128 .LEHB53-.LFB2915
	.uleb128 .LEHE53-.LEHB53
	.uleb128 .L522-.LFB2915
	.uleb128 0
	.uleb128 .LEHB54-.LFB2915
	.uleb128 .LEHE54-.LEHB54
	.uleb128 0
	.uleb128 0
.LLSDACSE2915:
	.byte	0x1
	.byte	0
	.align 4
	.long	0

.LLSDATT2915:
	.section	.text$_ZNSt20__uninitialized_copyILb0EE13__uninit_copyISt13move_iteratorIPSt6vectorIiSaIiEEES6_EET0_T_S9_S8_,"x"
	.linkonce discard
	.seh_endproc
	.section	.text$_ZNSt20__copy_move_backwardILb1ELb0ESt26random_access_iterator_tagE13__copy_move_bIPSt6vectorIiSaIiEES6_EET0_T_S8_S7_,"x"
	.linkonce discard
	.globl	_ZNSt20__copy_move_backwardILb1ELb0ESt26random_access_iterator_tagE13__copy_move_bIPSt6vectorIiSaIiEES6_EET0_T_S8_S7_
	.def	_ZNSt20__copy_move_backwardILb1ELb0ESt26random_access_iterator_tagE13__copy_move_bIPSt6vectorIiSaIiEES6_EET0_T_S8_S7_;	.scl	2;	.type	32;	.endef
	.seh_proc	_ZNSt20__copy_move_backwardILb1ELb0ESt26random_access_iterator_tagE13__copy_move_bIPSt6vectorIiSaIiEES6_EET0_T_S8_S7_
_ZNSt20__copy_move_backwardILb1ELb0ESt26random_access_iterator_tagE13__copy_move_bIPSt6vectorIiSaIiEES6_EET0_T_S8_S7_:
.LFB2916:
	pushq	%rbp
	.seh_pushreg	%rbp
	movq	%rsp, %rbp
	.seh_setframe	%rbp, 0
	subq	$48, %rsp
	.seh_stackalloc	48
	.seh_endprologue
	movq	%rcx, 16(%rbp)
	movq	%rdx, 24(%rbp)
	movq	%r8, 32(%rbp)
	movq	24(%rbp), %rdx
	movq	16(%rbp), %rax
	subq	%rax, %rdx
	movq	%rdx, %rax
	sarq	$3, %rax
	movq	%rax, %rdx
	movabsq	$-6148914691236517205, %rax
	imulq	%rdx, %rax
	movq	%rax, -8(%rbp)
.L526:
	cmpq	$0, -8(%rbp)
	jle	.L525
	subq	$24, 24(%rbp)
	movq	24(%rbp), %rax
	movq	%rax, %rcx
	call	_ZSt4moveIRSt6vectorIiSaIiEEEONSt16remove_referenceIT_E4typeEOS5_
	movq	%rax, %rdx
	subq	$24, 32(%rbp)
	movq	32(%rbp), %rax
	movq	%rax, %rcx
	call	_ZNSt6vectorIiSaIiEEaSEOS1_
	subq	$1, -8(%rbp)
	jmp	.L526
.L525:
	movq	32(%rbp), %rax
	addq	$48, %rsp
	popq	%rbp
	ret
	.seh_endproc
	.section	.text$_ZStneIiEbRKSaIT_ES3_,"x"
	.linkonce discard
	.globl	_ZStneIiEbRKSaIT_ES3_
	.def	_ZStneIiEbRKSaIT_ES3_;	.scl	2;	.type	32;	.endef
	.seh_proc	_ZStneIiEbRKSaIT_ES3_
_ZStneIiEbRKSaIT_ES3_:
.LFB2917:
	pushq	%rbp
	.seh_pushreg	%rbp
	movq	%rsp, %rbp
	.seh_setframe	%rbp, 0
	.seh_endprologue
	movq	%rcx, 16(%rbp)
	movq	%rdx, 24(%rbp)
	movl	$0, %eax
	popq	%rbp
	ret
	.seh_endproc
	.section	.text$_ZNSt6vectorIiSaIiEE5clearEv,"x"
	.linkonce discard
	.align 2
	.globl	_ZNSt6vectorIiSaIiEE5clearEv
	.def	_ZNSt6vectorIiSaIiEE5clearEv;	.scl	2;	.type	32;	.endef
	.seh_proc	_ZNSt6vectorIiSaIiEE5clearEv
_ZNSt6vectorIiSaIiEE5clearEv:
.LFB2918:
	pushq	%rbp
	.seh_pushreg	%rbp
	movq	%rsp, %rbp
	.seh_setframe	%rbp, 0
	subq	$32, %rsp
	.seh_stackalloc	32
	.seh_endprologue
	movq	%rcx, 16(%rbp)
	movq	16(%rbp), %rax
	movq	(%rax), %rax
	movq	%rax, %rdx
	movq	16(%rbp), %rcx
	call	_ZNSt6vectorIiSaIiEE15_M_erase_at_endEPi
	nop
	addq	$32, %rsp
	popq	%rbp
	ret
	.seh_endproc
	.section	.text$_ZSt15__alloc_on_copyISaIiEEvRT_RKS1_,"x"
	.linkonce discard
	.globl	_ZSt15__alloc_on_copyISaIiEEvRT_RKS1_
	.def	_ZSt15__alloc_on_copyISaIiEEvRT_RKS1_;	.scl	2;	.type	32;	.endef
	.seh_proc	_ZSt15__alloc_on_copyISaIiEEvRT_RKS1_
_ZSt15__alloc_on_copyISaIiEEvRT_RKS1_:
.LFB2919:
	pushq	%rbp
	.seh_pushreg	%rbp
	movq	%rsp, %rbp
	.seh_setframe	%rbp, 0
	subq	$48, %rsp
	.seh_stackalloc	48
	.seh_endprologue
	movq	%rcx, 16(%rbp)
	movq	%rdx, 24(%rbp)
	movq	24(%rbp), %rax
	movq	%rax, %rdx
	movq	16(%rbp), %rcx
	call	_ZSt18__do_alloc_on_copyISaIiEEvRT_RKS1_St17integral_constantIbLb0EE
	nop
	addq	$48, %rsp
	popq	%rbp
	ret
	.seh_endproc
	.section	.text$_ZNKSt6vectorIiSaIiEE8capacityEv,"x"
	.linkonce discard
	.align 2
	.globl	_ZNKSt6vectorIiSaIiEE8capacityEv
	.def	_ZNKSt6vectorIiSaIiEE8capacityEv;	.scl	2;	.type	32;	.endef
	.seh_proc	_ZNKSt6vectorIiSaIiEE8capacityEv
_ZNKSt6vectorIiSaIiEE8capacityEv:
.LFB2920:
	pushq	%rbp
	.seh_pushreg	%rbp
	movq	%rsp, %rbp
	.seh_setframe	%rbp, 0
	.seh_endprologue
	movq	%rcx, 16(%rbp)
	movq	16(%rbp), %rax
	movq	16(%rax), %rax
	movq	%rax, %rdx
	movq	16(%rbp), %rax
	movq	(%rax), %rax
	subq	%rax, %rdx
	movq	%rdx, %rax
	sarq	$2, %rax
	popq	%rbp
	ret
	.seh_endproc
	.section	.text$_ZNSt6vectorIiSaIiEE20_M_allocate_and_copyIN9__gnu_cxx17__normal_iteratorIPKiS1_EEEEPimT_S9_,"x"
	.linkonce discard
	.align 2
	.globl	_ZNSt6vectorIiSaIiEE20_M_allocate_and_copyIN9__gnu_cxx17__normal_iteratorIPKiS1_EEEEPimT_S9_
	.def	_ZNSt6vectorIiSaIiEE20_M_allocate_and_copyIN9__gnu_cxx17__normal_iteratorIPKiS1_EEEEPimT_S9_;	.scl	2;	.type	32;	.endef
	.seh_proc	_ZNSt6vectorIiSaIiEE20_M_allocate_and_copyIN9__gnu_cxx17__normal_iteratorIPKiS1_EEEEPimT_S9_
_ZNSt6vectorIiSaIiEE20_M_allocate_and_copyIN9__gnu_cxx17__normal_iteratorIPKiS1_EEEEPimT_S9_:
.LFB2921:
	pushq	%rbp
	.seh_pushreg	%rbp
	pushq	%rbx
	.seh_pushreg	%rbx
	subq	$56, %rsp
	.seh_stackalloc	56
	leaq	128(%rsp), %rbp
	.seh_setframe	%rbp, 128
	.seh_endprologue
	movq	%rcx, -48(%rbp)
	movq	%rdx, -40(%rbp)
	movq	%r8, -32(%rbp)
	movq	%r9, -24(%rbp)
	movq	-48(%rbp), %rax
	movq	-40(%rbp), %rdx
	movq	%rax, %rcx
.LEHB55:
	call	_ZNSt12_Vector_baseIiSaIiEE11_M_allocateEm
.LEHE55:
	movq	%rax, -88(%rbp)
	movq	-48(%rbp), %rax
	movq	%rax, %rcx
	call	_ZNSt12_Vector_baseIiSaIiEE19_M_get_Tp_allocatorEv
	movq	%rax, %r8
	movq	-88(%rbp), %rcx
	movq	-24(%rbp), %rdx
	movq	-32(%rbp), %rax
	movq	%r8, %r9
	movq	%rcx, %r8
	movq	%rax, %rcx
.LEHB56:
	call	_ZSt22__uninitialized_copy_aIN9__gnu_cxx17__normal_iteratorIPKiSt6vectorIiSaIiEEEEPiiET0_T_SA_S9_RSaIT1_E
.LEHE56:
	movq	-88(%rbp), %rax
	jmp	.L540
.L538:
	movq	%rax, %rcx
	call	__cxa_begin_catch
	movq	-48(%rbp), %rax
	movq	-40(%rbp), %rcx
	movq	-88(%rbp), %rdx
	movq	%rcx, %r8
	movq	%rax, %rcx
.LEHB57:
	call	_ZNSt12_Vector_baseIiSaIiEE13_M_deallocateEPim
	call	__cxa_rethrow
.LEHE57:
.L539:
	movq	%rax, %rbx
	call	__cxa_end_catch
	movq	%rbx, %rax
	movq	%rax, %rcx
.LEHB58:
	call	_Unwind_Resume
.LEHE58:
.L540:
	addq	$56, %rsp
	popq	%rbx
	popq	%rbp
	ret
	.seh_handler	__gxx_personality_seh0, @unwind, @except
	.seh_handlerdata
	.align 4
.LLSDA2921:
	.byte	0xff
	.byte	0x9b
	.uleb128 .LLSDATT2921-.LLSDATTD2921
.LLSDATTD2921:
	.byte	0x1
	.uleb128 .LLSDACSE2921-.LLSDACSB2921
.LLSDACSB2921:
	.uleb128 .LEHB55-.LFB2921
	.uleb128 .LEHE55-.LEHB55
	.uleb128 0
	.uleb128 0
	.uleb128 .LEHB56-.LFB2921
	.uleb128 .LEHE56-.LEHB56
	.uleb128 .L538-.LFB2921
	.uleb128 0x1
	.uleb128 .LEHB57-.LFB2921
	.uleb128 .LEHE57-.LEHB57
	.uleb128 .L539-.LFB2921
	.uleb128 0
	.uleb128 .LEHB58-.LFB2921
	.uleb128 .LEHE58-.LEHB58
	.uleb128 0
	.uleb128 0
.LLSDACSE2921:
	.byte	0x1
	.byte	0
	.align 4
	.long	0

.LLSDATT2921:
	.section	.text$_ZNSt6vectorIiSaIiEE20_M_allocate_and_copyIN9__gnu_cxx17__normal_iteratorIPKiS1_EEEEPimT_S9_,"x"
	.linkonce discard
	.seh_endproc
	.section	.text$_ZSt4copyIN9__gnu_cxx17__normal_iteratorIPKiSt6vectorIiSaIiEEEENS1_IPiS6_EEET0_T_SB_SA_,"x"
	.linkonce discard
	.globl	_ZSt4copyIN9__gnu_cxx17__normal_iteratorIPKiSt6vectorIiSaIiEEEENS1_IPiS6_EEET0_T_SB_SA_
	.def	_ZSt4copyIN9__gnu_cxx17__normal_iteratorIPKiSt6vectorIiSaIiEEEENS1_IPiS6_EEET0_T_SB_SA_;	.scl	2;	.type	32;	.endef
	.seh_proc	_ZSt4copyIN9__gnu_cxx17__normal_iteratorIPKiSt6vectorIiSaIiEEEENS1_IPiS6_EEET0_T_SB_SA_
_ZSt4copyIN9__gnu_cxx17__normal_iteratorIPKiSt6vectorIiSaIiEEEENS1_IPiS6_EEET0_T_SB_SA_:
.LFB2922:
	pushq	%rbp
	.seh_pushreg	%rbp
	pushq	%rbx
	.seh_pushreg	%rbx
	subq	$40, %rsp
	.seh_stackalloc	40
	leaq	128(%rsp), %rbp
	.seh_setframe	%rbp, 128
	.seh_endprologue
	movq	%rcx, -64(%rbp)
	movq	%rdx, -56(%rbp)
	movq	%r8, -48(%rbp)
	movq	-56(%rbp), %rax
	movq	%rax, %rcx
	call	_ZSt12__miter_baseIN9__gnu_cxx17__normal_iteratorIPKiSt6vectorIiSaIiEEEEET_S8_
	movq	%rax, %rbx
	movq	-64(%rbp), %rcx
	call	_ZSt12__miter_baseIN9__gnu_cxx17__normal_iteratorIPKiSt6vectorIiSaIiEEEEET_S8_
	movq	%rax, %rcx
	movq	-48(%rbp), %rax
	movq	%rax, %r8
	movq	%rbx, %rdx
	call	_ZSt14__copy_move_a2ILb0EN9__gnu_cxx17__normal_iteratorIPKiSt6vectorIiSaIiEEEENS1_IPiS6_EEET1_T0_SB_SA_
	addq	$40, %rsp
	popq	%rbx
	popq	%rbp
	ret
	.seh_endproc
	.section	.text$_ZSt8_DestroyIN9__gnu_cxx17__normal_iteratorIPiSt6vectorIiSaIiEEEEiEvT_S7_RSaIT0_E,"x"
	.linkonce discard
	.globl	_ZSt8_DestroyIN9__gnu_cxx17__normal_iteratorIPiSt6vectorIiSaIiEEEEiEvT_S7_RSaIT0_E
	.def	_ZSt8_DestroyIN9__gnu_cxx17__normal_iteratorIPiSt6vectorIiSaIiEEEEiEvT_S7_RSaIT0_E;	.scl	2;	.type	32;	.endef
	.seh_proc	_ZSt8_DestroyIN9__gnu_cxx17__normal_iteratorIPiSt6vectorIiSaIiEEEEiEvT_S7_RSaIT0_E
_ZSt8_DestroyIN9__gnu_cxx17__normal_iteratorIPiSt6vectorIiSaIiEEEEiEvT_S7_RSaIT0_E:
.LFB2923:
	pushq	%rbp
	.seh_pushreg	%rbp
	movq	%rsp, %rbp
	.seh_setframe	%rbp, 0
	subq	$32, %rsp
	.seh_stackalloc	32
	.seh_endprologue
	movq	%rcx, 16(%rbp)
	movq	%rdx, 24(%rbp)
	movq	%r8, 32(%rbp)
	movq	24(%rbp), %rax
	movq	%rax, %rdx
	movq	16(%rbp), %rcx
	call	_ZSt8_DestroyIN9__gnu_cxx17__normal_iteratorIPiSt6vectorIiSaIiEEEEEvT_S7_
	nop
	addq	$32, %rsp
	popq	%rbp
	ret
	.seh_endproc
	.section	.text$_ZSt4copyIPiS0_ET0_T_S2_S1_,"x"
	.linkonce discard
	.globl	_ZSt4copyIPiS0_ET0_T_S2_S1_
	.def	_ZSt4copyIPiS0_ET0_T_S2_S1_;	.scl	2;	.type	32;	.endef
	.seh_proc	_ZSt4copyIPiS0_ET0_T_S2_S1_
_ZSt4copyIPiS0_ET0_T_S2_S1_:
.LFB2924:
	pushq	%rbp
	.seh_pushreg	%rbp
	pushq	%rbx
	.seh_pushreg	%rbx
	subq	$40, %rsp
	.seh_stackalloc	40
	leaq	128(%rsp), %rbp
	.seh_setframe	%rbp, 128
	.seh_endprologue
	movq	%rcx, -64(%rbp)
	movq	%rdx, -56(%rbp)
	movq	%r8, -48(%rbp)
	movq	-56(%rbp), %rax
	movq	%rax, %rcx
	call	_ZSt12__miter_baseIPiET_S1_
	movq	%rax, %rbx
	movq	-64(%rbp), %rcx
	call	_ZSt12__miter_baseIPiET_S1_
	movq	%rax, %rcx
	movq	-48(%rbp), %rax
	movq	%rax, %r8
	movq	%rbx, %rdx
	call	_ZSt14__copy_move_a2ILb0EPiS0_ET1_T0_S2_S1_
	addq	$40, %rsp
	popq	%rbx
	popq	%rbp
	ret
	.seh_endproc
	.section	.text$_ZSt22__uninitialized_copy_aIPiS0_iET0_T_S2_S1_RSaIT1_E,"x"
	.linkonce discard
	.globl	_ZSt22__uninitialized_copy_aIPiS0_iET0_T_S2_S1_RSaIT1_E
	.def	_ZSt22__uninitialized_copy_aIPiS0_iET0_T_S2_S1_RSaIT1_E;	.scl	2;	.type	32;	.endef
	.seh_proc	_ZSt22__uninitialized_copy_aIPiS0_iET0_T_S2_S1_RSaIT1_E
_ZSt22__uninitialized_copy_aIPiS0_iET0_T_S2_S1_RSaIT1_E:
.LFB2925:
	pushq	%rbp
	.seh_pushreg	%rbp
	movq	%rsp, %rbp
	.seh_setframe	%rbp, 0
	subq	$32, %rsp
	.seh_stackalloc	32
	.seh_endprologue
	movq	%rcx, 16(%rbp)
	movq	%rdx, 24(%rbp)
	movq	%r8, 32(%rbp)
	movq	%r9, 40(%rbp)
	movq	32(%rbp), %rdx
	movq	24(%rbp), %rax
	movq	%rdx, %r8
	movq	%rax, %rdx
	movq	16(%rbp), %rcx
	call	_ZSt18uninitialized_copyIPiS0_ET0_T_S2_S1_
	addq	$32, %rsp
	popq	%rbp
	ret
	.seh_endproc
	.section	.text$_ZNK9__gnu_cxx13new_allocatorISt6vectorIiSaIiEEE8max_sizeEv,"x"
	.linkonce discard
	.align 2
	.globl	_ZNK9__gnu_cxx13new_allocatorISt6vectorIiSaIiEEE8max_sizeEv
	.def	_ZNK9__gnu_cxx13new_allocatorISt6vectorIiSaIiEEE8max_sizeEv;	.scl	2;	.type	32;	.endef
	.seh_proc	_ZNK9__gnu_cxx13new_allocatorISt6vectorIiSaIiEEE8max_sizeEv
_ZNK9__gnu_cxx13new_allocatorISt6vectorIiSaIiEEE8max_sizeEv:
.LFB2926:
	pushq	%rbp
	.seh_pushreg	%rbp
	movq	%rsp, %rbp
	.seh_setframe	%rbp, 0
	.seh_endprologue
	movq	%rcx, 16(%rbp)
	movabsq	$768614336404564650, %rax
	popq	%rbp
	ret
	.seh_endproc
	.section	.text$_ZSt9addressofIiEPT_RS0_,"x"
	.linkonce discard
	.globl	_ZSt9addressofIiEPT_RS0_
	.def	_ZSt9addressofIiEPT_RS0_;	.scl	2;	.type	32;	.endef
	.seh_proc	_ZSt9addressofIiEPT_RS0_
_ZSt9addressofIiEPT_RS0_:
.LFB2927:
	pushq	%rbp
	.seh_pushreg	%rbp
	movq	%rsp, %rbp
	.seh_setframe	%rbp, 0
	subq	$32, %rsp
	.seh_stackalloc	32
	.seh_endprologue
	movq	%rcx, 16(%rbp)
	movq	16(%rbp), %rcx
	call	_ZSt11__addressofIiEPT_RS0_
	addq	$32, %rsp
	popq	%rbp
	ret
	.seh_endproc
	.section	.text$_ZNSt20__uninitialized_copyILb1EE13__uninit_copyISt13move_iteratorIPiES3_EET0_T_S6_S5_,"x"
	.linkonce discard
	.globl	_ZNSt20__uninitialized_copyILb1EE13__uninit_copyISt13move_iteratorIPiES3_EET0_T_S6_S5_
	.def	_ZNSt20__uninitialized_copyILb1EE13__uninit_copyISt13move_iteratorIPiES3_EET0_T_S6_S5_;	.scl	2;	.type	32;	.endef
	.seh_proc	_ZNSt20__uninitialized_copyILb1EE13__uninit_copyISt13move_iteratorIPiES3_EET0_T_S6_S5_
_ZNSt20__uninitialized_copyILb1EE13__uninit_copyISt13move_iteratorIPiES3_EET0_T_S6_S5_:
.LFB2928:
	pushq	%rbp
	.seh_pushreg	%rbp
	movq	%rsp, %rbp
	.seh_setframe	%rbp, 0
	subq	$32, %rsp
	.seh_stackalloc	32
	.seh_endprologue
	movq	%rcx, 16(%rbp)
	movq	%rdx, 24(%rbp)
	movq	%r8, 32(%rbp)
	movq	32(%rbp), %rdx
	movq	24(%rbp), %rax
	movq	%rdx, %r8
	movq	%rax, %rdx
	movq	16(%rbp), %rcx
	call	_ZSt4copyISt13move_iteratorIPiES1_ET0_T_S4_S3_
	addq	$32, %rsp
	popq	%rbp
	ret
	.seh_endproc
	.section	.text$_ZNSt20__copy_move_backwardILb1ELb1ESt26random_access_iterator_tagE13__copy_move_bIiEEPT_PKS3_S6_S4_,"x"
	.linkonce discard
	.globl	_ZNSt20__copy_move_backwardILb1ELb1ESt26random_access_iterator_tagE13__copy_move_bIiEEPT_PKS3_S6_S4_
	.def	_ZNSt20__copy_move_backwardILb1ELb1ESt26random_access_iterator_tagE13__copy_move_bIiEEPT_PKS3_S6_S4_;	.scl	2;	.type	32;	.endef
	.seh_proc	_ZNSt20__copy_move_backwardILb1ELb1ESt26random_access_iterator_tagE13__copy_move_bIiEEPT_PKS3_S6_S4_
_ZNSt20__copy_move_backwardILb1ELb1ESt26random_access_iterator_tagE13__copy_move_bIiEEPT_PKS3_S6_S4_:
.LFB2929:
	pushq	%rbp
	.seh_pushreg	%rbp
	movq	%rsp, %rbp
	.seh_setframe	%rbp, 0
	subq	$48, %rsp
	.seh_stackalloc	48
	.seh_endprologue
	movq	%rcx, 16(%rbp)
	movq	%rdx, 24(%rbp)
	movq	%r8, 32(%rbp)
	movq	24(%rbp), %rdx
	movq	16(%rbp), %rax
	subq	%rax, %rdx
	movq	%rdx, %rax
	sarq	$2, %rax
	movq	%rax, -8(%rbp)
	cmpq	$0, -8(%rbp)
	je	.L555
	movq	-8(%rbp), %rax
	leaq	0(,%rax,4), %rdx
	movq	-8(%rbp), %rax
	salq	$2, %rax
	negq	%rax
	movq	%rax, %rcx
	movq	32(%rbp), %rax
	addq	%rcx, %rax
	movq	%rdx, %r8
	movq	16(%rbp), %rdx
	movq	%rax, %rcx
	call	memmove
.L555:
	movq	-8(%rbp), %rax
	salq	$2, %rax
	negq	%rax
	movq	%rax, %rdx
	movq	32(%rbp), %rax
	addq	%rdx, %rax
	addq	$48, %rsp
	popq	%rbp
	ret
	.seh_endproc
	.section	.text$_ZNK9__gnu_cxx13new_allocatorIiE8max_sizeEv,"x"
	.linkonce discard
	.align 2
	.globl	_ZNK9__gnu_cxx13new_allocatorIiE8max_sizeEv
	.def	_ZNK9__gnu_cxx13new_allocatorIiE8max_sizeEv;	.scl	2;	.type	32;	.endef
	.seh_proc	_ZNK9__gnu_cxx13new_allocatorIiE8max_sizeEv
_ZNK9__gnu_cxx13new_allocatorIiE8max_sizeEv:
.LFB2930:
	pushq	%rbp
	.seh_pushreg	%rbp
	movq	%rsp, %rbp
	.seh_setframe	%rbp, 0
	.seh_endprologue
	movq	%rcx, 16(%rbp)
	movabsq	$4611686018427387903, %rax
	popq	%rbp
	ret
	.seh_endproc
	.section	.text$_ZSt12__miter_baseIN9__gnu_cxx17__normal_iteratorIPKiSt6vectorIiSaIiEEEEET_S8_,"x"
	.linkonce discard
	.globl	_ZSt12__miter_baseIN9__gnu_cxx17__normal_iteratorIPKiSt6vectorIiSaIiEEEEET_S8_
	.def	_ZSt12__miter_baseIN9__gnu_cxx17__normal_iteratorIPKiSt6vectorIiSaIiEEEEET_S8_;	.scl	2;	.type	32;	.endef
	.seh_proc	_ZSt12__miter_baseIN9__gnu_cxx17__normal_iteratorIPKiSt6vectorIiSaIiEEEEET_S8_
_ZSt12__miter_baseIN9__gnu_cxx17__normal_iteratorIPKiSt6vectorIiSaIiEEEEET_S8_:
.LFB2931:
	pushq	%rbp
	.seh_pushreg	%rbp
	movq	%rsp, %rbp
	.seh_setframe	%rbp, 0
	.seh_endprologue
	movq	%rcx, 16(%rbp)
	movq	16(%rbp), %rax
	popq	%rbp
	ret
	.seh_endproc
	.section	.text$_ZSt14__copy_move_a2ILb0EN9__gnu_cxx17__normal_iteratorIPKiSt6vectorIiSaIiEEEEPiET1_T0_SA_S9_,"x"
	.linkonce discard
	.globl	_ZSt14__copy_move_a2ILb0EN9__gnu_cxx17__normal_iteratorIPKiSt6vectorIiSaIiEEEEPiET1_T0_SA_S9_
	.def	_ZSt14__copy_move_a2ILb0EN9__gnu_cxx17__normal_iteratorIPKiSt6vectorIiSaIiEEEEPiET1_T0_SA_S9_;	.scl	2;	.type	32;	.endef
	.seh_proc	_ZSt14__copy_move_a2ILb0EN9__gnu_cxx17__normal_iteratorIPKiSt6vectorIiSaIiEEEEPiET1_T0_SA_S9_
_ZSt14__copy_move_a2ILb0EN9__gnu_cxx17__normal_iteratorIPKiSt6vectorIiSaIiEEEEPiET1_T0_SA_S9_:
.LFB2932:
	pushq	%rbp
	.seh_pushreg	%rbp
	pushq	%rsi
	.seh_pushreg	%rsi
	pushq	%rbx
	.seh_pushreg	%rbx
	movq	%rsp, %rbp
	.seh_setframe	%rbp, 0
	subq	$32, %rsp
	.seh_stackalloc	32
	.seh_endprologue
	movq	%rcx, 32(%rbp)
	movq	%rdx, 40(%rbp)
	movq	%r8, 48(%rbp)
	movq	48(%rbp), %rax
	movq	%rax, %rcx
	call	_ZSt12__niter_baseIPiET_S1_
	movq	%rax, %rsi
	movq	40(%rbp), %rax
	movq	%rax, %rcx
	call	_ZSt12__niter_baseIPKiSt6vectorIiSaIiEEET_N9__gnu_cxx17__normal_iteratorIS5_T0_EE
	movq	%rax, %rbx
	movq	32(%rbp), %rcx
	call	_ZSt12__niter_baseIPKiSt6vectorIiSaIiEEET_N9__gnu_cxx17__normal_iteratorIS5_T0_EE
	movq	%rsi, %r8
	movq	%rbx, %rdx
	movq	%rax, %rcx
	call	_ZSt13__copy_move_aILb0EPKiPiET1_T0_S4_S3_
	addq	$32, %rsp
	popq	%rbx
	popq	%rsi
	popq	%rbp
	ret
	.seh_endproc
	.section	.text$_ZN9__gnu_cxx13new_allocatorISt10_List_nodeIiEE8allocateEmPKv,"x"
	.linkonce discard
	.align 2
	.globl	_ZN9__gnu_cxx13new_allocatorISt10_List_nodeIiEE8allocateEmPKv
	.def	_ZN9__gnu_cxx13new_allocatorISt10_List_nodeIiEE8allocateEmPKv;	.scl	2;	.type	32;	.endef
	.seh_proc	_ZN9__gnu_cxx13new_allocatorISt10_List_nodeIiEE8allocateEmPKv
_ZN9__gnu_cxx13new_allocatorISt10_List_nodeIiEE8allocateEmPKv:
.LFB2933:
	pushq	%rbp
	.seh_pushreg	%rbp
	movq	%rsp, %rbp
	.seh_setframe	%rbp, 0
	subq	$32, %rsp
	.seh_stackalloc	32
	.seh_endprologue
	movq	%rcx, 16(%rbp)
	movq	%rdx, 24(%rbp)
	movq	%r8, 32(%rbp)
	movq	16(%rbp), %rcx
	call	_ZNK9__gnu_cxx13new_allocatorISt10_List_nodeIiEE8max_sizeEv
	cmpq	%rax, 24(%rbp)
	seta	%al
	testb	%al, %al
	je	.L564
	call	_ZSt17__throw_bad_allocv
.L564:
	movq	24(%rbp), %rdx
	movq	%rdx, %rax
	addq	%rax, %rax
	addq	%rdx, %rax
	salq	$3, %rax
	movq	%rax, %rcx
	call	_Znwm
	addq	$32, %rsp
	popq	%rbp
	ret
	.seh_endproc
	.section	.text$_ZNK9__gnu_cxx17__normal_iteratorIPKSt6vectorIiSaIiEES1_IS3_SaIS3_EEE4baseEv,"x"
	.linkonce discard
	.align 2
	.globl	_ZNK9__gnu_cxx17__normal_iteratorIPKSt6vectorIiSaIiEES1_IS3_SaIS3_EEE4baseEv
	.def	_ZNK9__gnu_cxx17__normal_iteratorIPKSt6vectorIiSaIiEES1_IS3_SaIS3_EEE4baseEv;	.scl	2;	.type	32;	.endef
	.seh_proc	_ZNK9__gnu_cxx17__normal_iteratorIPKSt6vectorIiSaIiEES1_IS3_SaIS3_EEE4baseEv
_ZNK9__gnu_cxx17__normal_iteratorIPKSt6vectorIiSaIiEES1_IS3_SaIS3_EEE4baseEv:
.LFB2934:
	pushq	%rbp
	.seh_pushreg	%rbp
	movq	%rsp, %rbp
	.seh_setframe	%rbp, 0
	.seh_endprologue
	movq	%rcx, 16(%rbp)
	movq	16(%rbp), %rax
	popq	%rbp
	ret
	.seh_endproc
	.section	.text$_ZSt10__fill_n_aIPimiEN9__gnu_cxx11__enable_ifIXsrSt11__is_scalarIT1_E7__valueET_E6__typeES6_T0_RKS4_,"x"
	.linkonce discard
	.globl	_ZSt10__fill_n_aIPimiEN9__gnu_cxx11__enable_ifIXsrSt11__is_scalarIT1_E7__valueET_E6__typeES6_T0_RKS4_
	.def	_ZSt10__fill_n_aIPimiEN9__gnu_cxx11__enable_ifIXsrSt11__is_scalarIT1_E7__valueET_E6__typeES6_T0_RKS4_;	.scl	2;	.type	32;	.endef
	.seh_proc	_ZSt10__fill_n_aIPimiEN9__gnu_cxx11__enable_ifIXsrSt11__is_scalarIT1_E7__valueET_E6__typeES6_T0_RKS4_
_ZSt10__fill_n_aIPimiEN9__gnu_cxx11__enable_ifIXsrSt11__is_scalarIT1_E7__valueET_E6__typeES6_T0_RKS4_:
.LFB2944:
	pushq	%rbp
	.seh_pushreg	%rbp
	movq	%rsp, %rbp
	.seh_setframe	%rbp, 0
	subq	$16, %rsp
	.seh_stackalloc	16
	.seh_endprologue
	movq	%rcx, 16(%rbp)
	movq	%rdx, 24(%rbp)
	movq	%r8, 32(%rbp)
	movq	32(%rbp), %rax
	movl	(%rax), %eax
	movl	%eax, -12(%rbp)
	movq	24(%rbp), %rax
	movq	%rax, -8(%rbp)
.L570:
	cmpq	$0, -8(%rbp)
	je	.L569
	movq	16(%rbp), %rax
	movl	-12(%rbp), %edx
	movl	%edx, (%rax)
	subq	$1, -8(%rbp)
	addq	$4, 16(%rbp)
	jmp	.L570
.L569:
	movq	16(%rbp), %rax
	addq	$16, %rsp
	popq	%rbp
	ret
	.seh_endproc
	.section	.text$_ZStneIPSt6vectorIiSaIiEEEbRKSt13move_iteratorIT_ES8_,"x"
	.linkonce discard
	.globl	_ZStneIPSt6vectorIiSaIiEEEbRKSt13move_iteratorIT_ES8_
	.def	_ZStneIPSt6vectorIiSaIiEEEbRKSt13move_iteratorIT_ES8_;	.scl	2;	.type	32;	.endef
	.seh_proc	_ZStneIPSt6vectorIiSaIiEEEbRKSt13move_iteratorIT_ES8_
_ZStneIPSt6vectorIiSaIiEEEbRKSt13move_iteratorIT_ES8_:
.LFB2945:
	pushq	%rbp
	.seh_pushreg	%rbp
	movq	%rsp, %rbp
	.seh_setframe	%rbp, 0
	subq	$32, %rsp
	.seh_stackalloc	32
	.seh_endprologue
	movq	%rcx, 16(%rbp)
	movq	%rdx, 24(%rbp)
	movq	24(%rbp), %rax
	movq	%rax, %rdx
	movq	16(%rbp), %rcx
	call	_ZSteqIPSt6vectorIiSaIiEEEbRKSt13move_iteratorIT_ES8_
	xorl	$1, %eax
	addq	$32, %rsp
	popq	%rbp
	ret
	.seh_endproc
	.section	.text$_ZNSt13move_iteratorIPSt6vectorIiSaIiEEEppEv,"x"
	.linkonce discard
	.align 2
	.globl	_ZNSt13move_iteratorIPSt6vectorIiSaIiEEEppEv
	.def	_ZNSt13move_iteratorIPSt6vectorIiSaIiEEEppEv;	.scl	2;	.type	32;	.endef
	.seh_proc	_ZNSt13move_iteratorIPSt6vectorIiSaIiEEEppEv
_ZNSt13move_iteratorIPSt6vectorIiSaIiEEEppEv:
.LFB2946:
	pushq	%rbp
	.seh_pushreg	%rbp
	movq	%rsp, %rbp
	.seh_setframe	%rbp, 0
	.seh_endprologue
	movq	%rcx, 16(%rbp)
	movq	16(%rbp), %rax
	movq	(%rax), %rax
	leaq	24(%rax), %rdx
	movq	16(%rbp), %rax
	movq	%rdx, (%rax)
	movq	16(%rbp), %rax
	popq	%rbp
	ret
	.seh_endproc
	.section	.text$_ZNKSt13move_iteratorIPSt6vectorIiSaIiEEEdeEv,"x"
	.linkonce discard
	.align 2
	.globl	_ZNKSt13move_iteratorIPSt6vectorIiSaIiEEEdeEv
	.def	_ZNKSt13move_iteratorIPSt6vectorIiSaIiEEEdeEv;	.scl	2;	.type	32;	.endef
	.seh_proc	_ZNKSt13move_iteratorIPSt6vectorIiSaIiEEEdeEv
_ZNKSt13move_iteratorIPSt6vectorIiSaIiEEEdeEv:
.LFB2947:
	pushq	%rbp
	.seh_pushreg	%rbp
	movq	%rsp, %rbp
	.seh_setframe	%rbp, 0
	.seh_endprologue
	movq	%rcx, 16(%rbp)
	movq	16(%rbp), %rax
	movq	(%rax), %rax
	popq	%rbp
	ret
	.seh_endproc
	.section	.text$_ZSt10_ConstructISt6vectorIiSaIiEEJS2_EEvPT_DpOT0_,"x"
	.linkonce discard
	.globl	_ZSt10_ConstructISt6vectorIiSaIiEEJS2_EEvPT_DpOT0_
	.def	_ZSt10_ConstructISt6vectorIiSaIiEEJS2_EEvPT_DpOT0_;	.scl	2;	.type	32;	.endef
	.seh_proc	_ZSt10_ConstructISt6vectorIiSaIiEEJS2_EEvPT_DpOT0_
_ZSt10_ConstructISt6vectorIiSaIiEEJS2_EEvPT_DpOT0_:
.LFB2948:
	pushq	%rbp
	.seh_pushreg	%rbp
	pushq	%rbx
	.seh_pushreg	%rbx
	subq	$40, %rsp
	.seh_stackalloc	40
	leaq	128(%rsp), %rbp
	.seh_setframe	%rbp, 128
	.seh_endprologue
	movq	%rcx, -64(%rbp)
	movq	%rdx, -56(%rbp)
	movq	-56(%rbp), %rax
	movq	%rax, %rcx
	call	_ZSt7forwardISt6vectorIiSaIiEEEOT_RNSt16remove_referenceIS3_E4typeE
	movq	%rax, %rbx
	movq	-64(%rbp), %rax
	movq	%rax, %rdx
	movl	$24, %ecx
	call	_ZnwmPv
	testq	%rax, %rax
	je	.L581
	movq	%rbx, %rdx
	movq	%rax, %rcx
	call	_ZNSt6vectorIiSaIiEEC1EOS1_
.L581:
	nop
	addq	$40, %rsp
	popq	%rbx
	popq	%rbp
	ret
	.seh_endproc
	.section	.text$_ZSt4moveIRSt6vectorIiSaIiEEEONSt16remove_referenceIT_E4typeEOS5_,"x"
	.linkonce discard
	.globl	_ZSt4moveIRSt6vectorIiSaIiEEEONSt16remove_referenceIT_E4typeEOS5_
	.def	_ZSt4moveIRSt6vectorIiSaIiEEEONSt16remove_referenceIT_E4typeEOS5_;	.scl	2;	.type	32;	.endef
	.seh_proc	_ZSt4moveIRSt6vectorIiSaIiEEEONSt16remove_referenceIT_E4typeEOS5_
_ZSt4moveIRSt6vectorIiSaIiEEEONSt16remove_referenceIT_E4typeEOS5_:
.LFB2949:
	pushq	%rbp
	.seh_pushreg	%rbp
	movq	%rsp, %rbp
	.seh_setframe	%rbp, 0
	.seh_endprologue
	movq	%rcx, 16(%rbp)
	movq	16(%rbp), %rax
	popq	%rbp
	ret
	.seh_endproc
	.section	.text$_ZNSt6vectorIiSaIiEEaSEOS1_,"x"
	.linkonce discard
	.align 2
	.globl	_ZNSt6vectorIiSaIiEEaSEOS1_
	.def	_ZNSt6vectorIiSaIiEEaSEOS1_;	.scl	2;	.type	32;	.endef
	.seh_proc	_ZNSt6vectorIiSaIiEEaSEOS1_
_ZNSt6vectorIiSaIiEEaSEOS1_:
.LFB2950:
	pushq	%rbp
	.seh_pushreg	%rbp
	pushq	%rbx
	.seh_pushreg	%rbx
	subq	$56, %rsp
	.seh_stackalloc	56
	leaq	128(%rsp), %rbp
	.seh_setframe	%rbp, 128
	.seh_endprologue
	movq	%rcx, -48(%rbp)
	movq	%rdx, -40(%rbp)
	movb	$1, -81(%rbp)
	movq	-40(%rbp), %rax
	movq	%rax, %rcx
	call	_ZSt4moveIRSt6vectorIiSaIiEEEONSt16remove_referenceIT_E4typeEOS5_
	movl	%ebx, %r8d
	movq	%rax, %rdx
	movq	-48(%rbp), %rcx
	call	_ZNSt6vectorIiSaIiEE14_M_move_assignEOS1_St17integral_constantIbLb1EE
	movq	-48(%rbp), %rax
	addq	$56, %rsp
	popq	%rbx
	popq	%rbp
	ret
	.seh_endproc
	.section	.text$_ZSt18__do_alloc_on_copyISaIiEEvRT_RKS1_St17integral_constantIbLb0EE,"x"
	.linkonce discard
	.globl	_ZSt18__do_alloc_on_copyISaIiEEvRT_RKS1_St17integral_constantIbLb0EE
	.def	_ZSt18__do_alloc_on_copyISaIiEEvRT_RKS1_St17integral_constantIbLb0EE;	.scl	2;	.type	32;	.endef
	.seh_proc	_ZSt18__do_alloc_on_copyISaIiEEvRT_RKS1_St17integral_constantIbLb0EE
_ZSt18__do_alloc_on_copyISaIiEEvRT_RKS1_St17integral_constantIbLb0EE:
.LFB2951:
	pushq	%rbp
	.seh_pushreg	%rbp
	movq	%rsp, %rbp
	.seh_setframe	%rbp, 0
	.seh_endprologue
	movq	%rcx, 16(%rbp)
	movq	%rdx, 24(%rbp)
	movb	%r8b, 32(%rbp)
	nop
	popq	%rbp
	ret
	.seh_endproc
	.section	.text$_ZSt14__copy_move_a2ILb0EN9__gnu_cxx17__normal_iteratorIPKiSt6vectorIiSaIiEEEENS1_IPiS6_EEET1_T0_SB_SA_,"x"
	.linkonce discard
	.globl	_ZSt14__copy_move_a2ILb0EN9__gnu_cxx17__normal_iteratorIPKiSt6vectorIiSaIiEEEENS1_IPiS6_EEET1_T0_SB_SA_
	.def	_ZSt14__copy_move_a2ILb0EN9__gnu_cxx17__normal_iteratorIPKiSt6vectorIiSaIiEEEENS1_IPiS6_EEET1_T0_SB_SA_;	.scl	2;	.type	32;	.endef
	.seh_proc	_ZSt14__copy_move_a2ILb0EN9__gnu_cxx17__normal_iteratorIPKiSt6vectorIiSaIiEEEENS1_IPiS6_EEET1_T0_SB_SA_
_ZSt14__copy_move_a2ILb0EN9__gnu_cxx17__normal_iteratorIPKiSt6vectorIiSaIiEEEENS1_IPiS6_EEET1_T0_SB_SA_:
.LFB2952:
	pushq	%rbp
	.seh_pushreg	%rbp
	pushq	%rsi
	.seh_pushreg	%rsi
	pushq	%rbx
	.seh_pushreg	%rbx
	movq	%rsp, %rbp
	.seh_setframe	%rbp, 0
	subq	$48, %rsp
	.seh_stackalloc	48
	.seh_endprologue
	movq	%rcx, 32(%rbp)
	movq	%rdx, 40(%rbp)
	movq	%r8, 48(%rbp)
	movq	48(%rbp), %rax
	movq	%rax, %rcx
	call	_ZSt12__niter_baseIPiSt6vectorIiSaIiEEET_N9__gnu_cxx17__normal_iteratorIS4_T0_EE
	movq	%rax, %rsi
	movq	40(%rbp), %rax
	movq	%rax, %rcx
	call	_ZSt12__niter_baseIPKiSt6vectorIiSaIiEEET_N9__gnu_cxx17__normal_iteratorIS5_T0_EE
	movq	%rax, %rbx
	movq	32(%rbp), %rcx
	call	_ZSt12__niter_baseIPKiSt6vectorIiSaIiEEET_N9__gnu_cxx17__normal_iteratorIS5_T0_EE
	movq	%rsi, %r8
	movq	%rbx, %rdx
	movq	%rax, %rcx
	call	_ZSt13__copy_move_aILb0EPKiPiET1_T0_S4_S3_
	movq	%rax, -8(%rbp)
	leaq	-8(%rbp), %rdx
	leaq	-16(%rbp), %rax
	movq	%rax, %rcx
	call	_ZN9__gnu_cxx17__normal_iteratorIPiSt6vectorIiSaIiEEEC1ERKS1_
	movq	-16(%rbp), %rax
	addq	$48, %rsp
	popq	%rbx
	popq	%rsi
	popq	%rbp
	ret
	.seh_endproc
	.section	.text$_ZSt8_DestroyIN9__gnu_cxx17__normal_iteratorIPiSt6vectorIiSaIiEEEEEvT_S7_,"x"
	.linkonce discard
	.globl	_ZSt8_DestroyIN9__gnu_cxx17__normal_iteratorIPiSt6vectorIiSaIiEEEEEvT_S7_
	.def	_ZSt8_DestroyIN9__gnu_cxx17__normal_iteratorIPiSt6vectorIiSaIiEEEEEvT_S7_;	.scl	2;	.type	32;	.endef
	.seh_proc	_ZSt8_DestroyIN9__gnu_cxx17__normal_iteratorIPiSt6vectorIiSaIiEEEEEvT_S7_
_ZSt8_DestroyIN9__gnu_cxx17__normal_iteratorIPiSt6vectorIiSaIiEEEEEvT_S7_:
.LFB2953:
	pushq	%rbp
	.seh_pushreg	%rbp
	movq	%rsp, %rbp
	.seh_setframe	%rbp, 0
	subq	$32, %rsp
	.seh_stackalloc	32
	.seh_endprologue
	movq	%rcx, 16(%rbp)
	movq	%rdx, 24(%rbp)
	movq	24(%rbp), %rax
	movq	%rax, %rdx
	movq	16(%rbp), %rcx
	call	_ZNSt12_Destroy_auxILb1EE9__destroyIN9__gnu_cxx17__normal_iteratorIPiSt6vectorIiSaIiEEEEEEvT_S9_
	nop
	addq	$32, %rsp
	popq	%rbp
	ret
	.seh_endproc
	.section	.text$_ZSt14__copy_move_a2ILb0EPiS0_ET1_T0_S2_S1_,"x"
	.linkonce discard
	.globl	_ZSt14__copy_move_a2ILb0EPiS0_ET1_T0_S2_S1_
	.def	_ZSt14__copy_move_a2ILb0EPiS0_ET1_T0_S2_S1_;	.scl	2;	.type	32;	.endef
	.seh_proc	_ZSt14__copy_move_a2ILb0EPiS0_ET1_T0_S2_S1_
_ZSt14__copy_move_a2ILb0EPiS0_ET1_T0_S2_S1_:
.LFB2954:
	pushq	%rbp
	.seh_pushreg	%rbp
	pushq	%rsi
	.seh_pushreg	%rsi
	pushq	%rbx
	.seh_pushreg	%rbx
	movq	%rsp, %rbp
	.seh_setframe	%rbp, 0
	subq	$32, %rsp
	.seh_stackalloc	32
	.seh_endprologue
	movq	%rcx, 32(%rbp)
	movq	%rdx, 40(%rbp)
	movq	%r8, 48(%rbp)
	movq	48(%rbp), %rax
	movq	%rax, %rcx
	call	_ZSt12__niter_baseIPiET_S1_
	movq	%rax, %rsi
	movq	40(%rbp), %rax
	movq	%rax, %rcx
	call	_ZSt12__niter_baseIPiET_S1_
	movq	%rax, %rbx
	movq	32(%rbp), %rcx
	call	_ZSt12__niter_baseIPiET_S1_
	movq	%rsi, %r8
	movq	%rbx, %rdx
	movq	%rax, %rcx
	call	_ZSt13__copy_move_aILb0EPiS0_ET1_T0_S2_S1_
	addq	$32, %rsp
	popq	%rbx
	popq	%rsi
	popq	%rbp
	ret
	.seh_endproc
	.section	.text$_ZSt18uninitialized_copyIPiS0_ET0_T_S2_S1_,"x"
	.linkonce discard
	.globl	_ZSt18uninitialized_copyIPiS0_ET0_T_S2_S1_
	.def	_ZSt18uninitialized_copyIPiS0_ET0_T_S2_S1_;	.scl	2;	.type	32;	.endef
	.seh_proc	_ZSt18uninitialized_copyIPiS0_ET0_T_S2_S1_
_ZSt18uninitialized_copyIPiS0_ET0_T_S2_S1_:
.LFB2955:
	pushq	%rbp
	.seh_pushreg	%rbp
	movq	%rsp, %rbp
